
CandleLight.elf:     file format elf32-littleriscv
CandleLight.elf
architecture: riscv:rv32, flags 0x00000112:
EXEC_P, HAS_SYMS, D_PAGED
start address 0x00000000

Program Header:
0x70000003 off    0x000144bc vaddr 0x00000000 paddr 0x00000000 align 2**0
         filesz 0x00000030 memsz 0x00000000 flags r--
    LOAD off    0x00001000 vaddr 0x00000000 paddr 0x00000000 align 2**12
         filesz 0x00003978 memsz 0x00003978 flags r-x
    LOAD off    0x00005000 vaddr 0x20000000 paddr 0x00003978 align 2**12
         filesz 0x00000080 memsz 0x00000098 flags rw-
    LOAD off    0x00000e00 vaddr 0x20000e00 paddr 0x20000e00 align 2**12
         filesz 0x00000000 memsz 0x00000200 flags rw-

Sections:
Idx Name          Size      VMA       LMA       File off  Algn
  0 .init         000000a8  00000000  00000000  00001000  2**2
                  CONTENTS, ALLOC, LOAD, READONLY, CODE
  1 .text         000038d0  000000a8  000000a8  000010a8  2**3
                  CONTENTS, ALLOC, LOAD, READONLY, CODE
  2 .fini         00000000  00003978  00003978  00005080  2**0
                  CONTENTS, ALLOC, LOAD, CODE
  3 .dalign       00000000  20000000  20000000  00005080  2**0
                  CONTENTS
  4 .dlalign      00000000  00003978  00003978  00005080  2**0
                  CONTENTS
  5 .data         00000080  20000000  00003978  00005000  2**2
                  CONTENTS, ALLOC, LOAD, DATA
  6 .bss          00000018  20000080  000039f8  00005080  2**2
                  ALLOC
  7 .stack        00000200  20000e00  20000e00  00005e00  2**0
                  ALLOC
  8 .debug_info   00004e5e  00000000  00000000  00005080  2**0
                  CONTENTS, READONLY, DEBUGGING, OCTETS
  9 .debug_abbrev 00001053  00000000  00000000  00009ede  2**0
                  CONTENTS, READONLY, DEBUGGING, OCTETS
 10 .debug_aranges 000005b8  00000000  00000000  0000af38  2**3
                  CONTENTS, READONLY, DEBUGGING, OCTETS
 11 .debug_rnglists 00000623  00000000  00000000  0000b4f0  2**0
                  CONTENTS, READONLY, DEBUGGING, OCTETS
 12 .debug_line   00006a44  00000000  00000000  0000bb13  2**0
                  CONTENTS, READONLY, DEBUGGING, OCTETS
 13 .debug_str    00001aac  00000000  00000000  00012557  2**0
                  CONTENTS, READONLY, DEBUGGING, OCTETS
 14 .debug_line_str 00000488  00000000  00000000  00014003  2**0
                  CONTENTS, READONLY, DEBUGGING, OCTETS
 15 .comment      00000031  00000000  00000000  0001448b  2**0
                  CONTENTS, READONLY
 16 .riscv.attributes 00000030  00000000  00000000  000144bc  2**0
                  CONTENTS, READONLY
 17 .debug_frame  00000b64  00000000  00000000  000144ec  2**2
                  CONTENTS, READONLY, DEBUGGING, OCTETS
 18 .debug_loclists 00002194  00000000  00000000  00015050  2**0
                  CONTENTS, READONLY, DEBUGGING, OCTETS
SYMBOL TABLE:
00000000 l    d  .init	00000000 .init
000000a8 l    d  .text	00000000 .text
00003978 l    d  .fini	00000000 .fini
20000000 l    d  .dalign	00000000 .dalign
00003978 l    d  .dlalign	00000000 .dlalign
20000000 l    d  .data	00000000 .data
20000080 l    d  .bss	00000000 .bss
20000e00 l    d  .stack	00000000 .stack
00000000 l    d  .debug_info	00000000 .debug_info
00000000 l    d  .debug_abbrev	00000000 .debug_abbrev
00000000 l    d  .debug_aranges	00000000 .debug_aranges
00000000 l    d  .debug_rnglists	00000000 .debug_rnglists
00000000 l    d  .debug_line	00000000 .debug_line
00000000 l    d  .debug_str	00000000 .debug_str
00000000 l    d  .debug_line_str	00000000 .debug_line_str
00000000 l    d  .comment	00000000 .comment
00000000 l    d  .riscv.attributes	00000000 .riscv.attributes
00000000 l    d  .debug_frame	00000000 .debug_frame
00000000 l    d  .debug_loclists	00000000 .debug_loclists
00000000 l    df *ABS*	00000000 startup_ch32v00X.o
00000000 l    df *ABS*	00000000 save-restore.o
00000000 l    df *ABS*	00000000 div.o
00000000 l    df *ABS*	00000000 ch32v00X_it.c
00000000 l    df *ABS*	00000000 main.c
00000000 l    df *ABS*	00000000 system_ch32v00X.c
00000000 l    df *ABS*	00000000 ch32v00X_gpio.c
00000000 l    df *ABS*	00000000 ch32v00X_misc.c
00000000 l    df *ABS*	00000000 ch32v00X_rcc.c
00000000 l    df *ABS*	00000000 ch32v00X_tim.c
00000000 l    df *ABS*	00000000 debug.c
20000096 l     O .bss	00000001 p_us
20000094 l     O .bss	00000002 p_ms
20000014 l     O .data	00000004 curbrk.0
00000000 l    df *ABS*	00000000 adddf3.o
00000000 l    df *ABS*	00000000 divdf3.o
00000000 l    df *ABS*	00000000 gedf2.o
00000000 l    df *ABS*	00000000 ledf2.o
00000000 l    df *ABS*	00000000 muldf3.o
00000000 l    df *ABS*	00000000 subdf3.o
00000000 l    df *ABS*	00000000 floatsidf.o
00000000 l    df *ABS*	00000000 addsf3.o
00000000 l    df *ABS*	00000000 lesf2.o
00000000 l    df *ABS*	00000000 mulsf3.o
00000000 l    df *ABS*	00000000 subsf3.o
00000000 l    df *ABS*	00000000 fixunssfsi.o
00000000 l    df *ABS*	00000000 floatsisf.o
00000000 l    df *ABS*	00000000 extendsfdf2.o
00000000 l    df *ABS*	00000000 truncdfsf2.o
00000000 l    df *ABS*	00000000 _clzsi2.o
00000000 l    df *ABS*	00000000 lib_a-rand.o
00000000 l    df *ABS*	00000000 lib_a-malloc.o
00000000 l    df *ABS*	00000000 lib_a-nano-mallocr.o
0000365e l     F .text	00000050 sbrk_aligned
00000000 l    df *ABS*	00000000 lib_a-sbrkr.o
00000000 l    df *ABS*	00000000 lib_a-mlock.o
00000000 l    df *ABS*	00000000 lib_a-lock.o
00000000 l    df *ABS*	00000000 lib_a-impure.o
20000018 l     O .data	00000060 impure_data
000004da  w      .text	00000000 OPCM_IRQHandler
20000878 g       .data	00000000 __global_pointer$
000004da  w      .text	00000000 TIM1_CC_IRQHandler
0000013c g     F .text	00000010 HardFault_Handler
000037e8 g     F .text	00000006 __malloc_unlock
000004da  w      .text	00000000 SysTick_Handler
000004da  w      .text	00000000 PVD_IRQHandler
0000013a g     F .text	00000002 NMI_Handler
000018d0 g     F .text	000000e2 .hidden __gtdf2
20000088 g     O .bss	00000004 errno
20000080 g       .bss	00000000 _sbss
00000200 g       *ABS*	00000000 __stack_size
00002ebc g     F .text	00000380 .hidden __subsf3
000000b2 g     F .text	0000000a .hidden __riscv_restore_2
00000a04 g     F .text	00000016 TIM_CtrlPWMOutputs
00002776 g     F .text	00000070 .hidden __floatsidf
000019b2 g     F .text	000000dc .hidden __ltdf2
000009ae g     F .text	00000056 TIM_Cmd
00000a72 g     F .text	00000046 TIM_OC4PreloadConfig
000000c4 g     F .text	0000002c .hidden __hidden___udivsi3
20000010 g     O .data	00000004 SystemCoreClock
00003652 g     F .text	0000000c malloc
000000c4 g     F .text	0000002c .hidden __udivsi3
000000a8 g       .init	00000000 _einit
00002b44 g     F .text	00000098 .hidden __lesf2
0000055a g     F .text	00000076 GPIO_Init
20000090 g     O .bss	00000004 NVIC_Priority_Group
000004da  w      .text	00000000 SPI1_IRQHandler
000037ba g     F .text	00000028 _sbrk_r
000000a8 g     F .text	0000000a .hidden __riscv_save_1
000000b2 g     F .text	0000000a .hidden __riscv_restore_0
000004da  w      .text	00000000 AWU_IRQHandler
000004da  w      .text	00000000 EXTI7_0_IRQHandler
00003362 g     F .text	000000a6 .hidden __extendsfdf2
00000b64 g     F .text	000006fc .hidden __adddf3
20000e00 g       .stack	00000000 _heap_end
000004da  w      .text	00000000 DMA1_Channel4_IRQHandler
000004da  w      .text	00000000 ADC1_IRQHandler
00000b3e g     F .text	00000026 _sbrk
20000098 g       .bss	00000000 _ebss
000004da  w      .text	00000000 DMA1_Channel7_IRQHandler
00000ae0 g     F .text	00000030 Delay_Init
2000008c g     O .bss	00000001 __lock___malloc_recursive_mutex
000008bc g     F .text	0000001e RCC_PB2PeriphClockCmd
000005da g     F .text	000002dc GPIO_IPD_Unused
000019b2 g     F .text	000000dc .hidden __ledf2
00000a1a g     F .text	00000058 TIM_ARRPreloadConfig
000005d0 g     F .text	0000000a GPIO_WriteBit
000000f0 g     F .text	00000008 .hidden __umodsi3
000004da  w      .text	00000000 I2C1_EV_IRQHandler
000037f0 g     F .text	00000002 __retarget_lock_release_recursive
000004da  w      .text	00000000 DMA1_Channel6_IRQHandler
00003564 g     F .text	00000068 .hidden __clzsi2
000004da  w      .text	00000000 RCC_IRQHandler
000004da  w      .text	00000000 TIM1_TRG_COM_IRQHandler
000004da  w      .text	00000000 DMA1_Channel1_IRQHandler
00000000 g       .init	00000000 _start
000035cc g     F .text	00000086 rand
0000328e g     F .text	000000d4 .hidden __floatsisf
20000000 g       .dalign	00000000 _data_vma
00000946 g     F .text	00000068 TIM_OC4Init
00001260 g     F .text	00000670 .hidden __divdf3
00001a8e g     F .text	0000057e .hidden __muldf3
000037e2 g     F .text	00000006 __malloc_lock
000037ee g     F .text	00000002 __retarget_lock_acquire_recursive
000002ce g     F .text	000000ea main
000001fe g     F .text	000000d0 fluctuate
00002b44 g     F .text	00000098 .hidden __ltsf2
00003408 g     F .text	0000015c .hidden __truncdfsf2
000036ae g     F .text	0000010c _malloc_r
000004da  w      .text	00000000 DMA1_Channel5_IRQHandler
000000bc g     F .text	00000058 .hidden __divsi3
00000b10 g     F .text	0000002e Delay_Ms
00002bdc g     F .text	000002e0 .hidden __mulsf3
00000ab8 g     F .text	00000028 TIM_SetCompare4
000003b8 g     F .text	000000c0 SystemInit
00003878 g     O .text	00000100 .hidden __clz_tab
00000000 g       .init	00000000 _sinit
000004da  w      .text	00000000 DMA1_Channel3_IRQHandler
20000078 g     O .data	00000004 _impure_ptr
000004da  w      .text	00000000 TIM1_UP_IRQHandler
000004da  w      .text	00000000 WWDG_IRQHandler
000004da  w      .text	00000000 TIM2_IRQHandler
20001000 g       .stack	00000000 _eusrstack
000000a8 g     F .text	0000000a .hidden __riscv_save_2
000004da  w      .text	00000000 SW_Handler
0000014c g     F .text	000000b2 TIM1_PWMOut_Init
000004da  w      .text	00000000 TIM1_BRK_IRQHandler
20000080 g       .data	00000000 _edata
20000098 g       .bss	00000000 _end
000008da g     F .text	0000006c TIM_TimeBaseInit
00003978 g       .dlalign	00000000 _data_lma
000004da  w      .text	00000000 USART2_IRQHandler
00000478 g     F .text	00000062 SystemCoreClockUpdate
00000114 g     F .text	00000024 .hidden __modsi3
000004da  w      .text	00000000 DMA1_Channel2_IRQHandler
20000000 g     O .data	00000010 HBPrescTable
000004dc  w      .text	00000000 handle_reset
0000323c g     F .text	00000052 .hidden __fixunssfsi
000004da  w      .text	00000000 FLASH_IRQHandler
000000a8 g     F .text	0000000a .hidden __riscv_save_0
000004da  w      .text	00000000 USART1_IRQHandler
000018d0 g     F .text	000000e2 .hidden __gedf2
20000080 g     O .bss	00000004 __malloc_sbrk_start
000004da  w      .text	00000000 I2C1_ER_IRQHandler
000008b6 g     F .text	00000006 NVIC_PriorityGroupConfig
20000084 g     O .bss	00000004 __malloc_free_list
000000b2 g     F .text	0000000a .hidden __riscv_restore_1
0000200c g     F .text	0000076a .hidden __subdf3
000027e6 g     F .text	0000035e .hidden __addsf3



Disassembly of section .init:

00000000 <_sinit>:
   0:	4dc0006f          	j	4dc <handle_reset>
   4:	00000000          	.word	0x00000000
   8:	0000013a          	.word	0x0000013a
   c:	0000013c          	.word	0x0000013c
	...
  30:	000004da          	.word	0x000004da
  34:	00000000          	.word	0x00000000
  38:	000004da          	.word	0x000004da
  3c:	00000000          	.word	0x00000000
  40:	000004da          	.word	0x000004da
  44:	000004da          	.word	0x000004da
  48:	000004da          	.word	0x000004da
  4c:	000004da          	.word	0x000004da
  50:	000004da          	.word	0x000004da
  54:	000004da          	.word	0x000004da
  58:	000004da          	.word	0x000004da
  5c:	000004da          	.word	0x000004da
  60:	000004da          	.word	0x000004da
  64:	000004da          	.word	0x000004da
  68:	000004da          	.word	0x000004da
  6c:	000004da          	.word	0x000004da
  70:	000004da          	.word	0x000004da
  74:	000004da          	.word	0x000004da
  78:	000004da          	.word	0x000004da
  7c:	000004da          	.word	0x000004da
  80:	000004da          	.word	0x000004da
  84:	000004da          	.word	0x000004da
  88:	000004da          	.word	0x000004da
  8c:	000004da          	.word	0x000004da
  90:	000004da          	.word	0x000004da
  94:	000004da          	.word	0x000004da
  98:	000004da          	.word	0x000004da
  9c:	000004da          	.word	0x000004da
  a0:	000004da          	.word	0x000004da
  a4:	0000                	unimp
	...

Disassembly of section .text:

000000a8 <__riscv_save_0>:
      a8:	1151                	addi	sp,sp,-12
      aa:	c026                	sw	s1,0(sp)
      ac:	c222                	sw	s0,4(sp)
      ae:	c406                	sw	ra,8(sp)
      b0:	8282                	jr	t0

000000b2 <__riscv_restore_0>:
      b2:	4482                	lw	s1,0(sp)
      b4:	4412                	lw	s0,4(sp)
      b6:	40a2                	lw	ra,8(sp)
      b8:	0131                	addi	sp,sp,12
      ba:	8082                	ret

000000bc <__divsi3>:
      bc:	02054e63          	bltz	a0,f8 <__umodsi3+0x8>
      c0:	0405c363          	bltz	a1,106 <__umodsi3+0x16>

000000c4 <__hidden___udivsi3>:
      c4:	862e                	mv	a2,a1
      c6:	85aa                	mv	a1,a0
      c8:	557d                	li	a0,-1
      ca:	c215                	beqz	a2,ee <__hidden___udivsi3+0x2a>
      cc:	4685                	li	a3,1
      ce:	00b67863          	bgeu	a2,a1,de <__hidden___udivsi3+0x1a>
      d2:	00c05663          	blez	a2,de <__hidden___udivsi3+0x1a>
      d6:	0606                	slli	a2,a2,0x1
      d8:	0686                	slli	a3,a3,0x1
      da:	feb66ce3          	bltu	a2,a1,d2 <__hidden___udivsi3+0xe>
      de:	4501                	li	a0,0
      e0:	00c5e463          	bltu	a1,a2,e8 <__hidden___udivsi3+0x24>
      e4:	8d91                	sub	a1,a1,a2
      e6:	8d55                	or	a0,a0,a3
      e8:	8285                	srli	a3,a3,0x1
      ea:	8205                	srli	a2,a2,0x1
      ec:	faf5                	bnez	a3,e0 <__hidden___udivsi3+0x1c>
      ee:	8082                	ret

000000f0 <__umodsi3>:
      f0:	8286                	mv	t0,ra
      f2:	3fc9                	jal	c4 <__hidden___udivsi3>
      f4:	852e                	mv	a0,a1
      f6:	8282                	jr	t0
      f8:	40a00533          	neg	a0,a0
      fc:	00b04763          	bgtz	a1,10a <__umodsi3+0x1a>
     100:	40b005b3          	neg	a1,a1
     104:	b7c1                	j	c4 <__hidden___udivsi3>
     106:	40b005b3          	neg	a1,a1
     10a:	8286                	mv	t0,ra
     10c:	3f65                	jal	c4 <__hidden___udivsi3>
     10e:	40a00533          	neg	a0,a0
     112:	8282                	jr	t0

00000114 <__modsi3>:
     114:	8286                	mv	t0,ra
     116:	0005c763          	bltz	a1,124 <__modsi3+0x10>
     11a:	00054963          	bltz	a0,12c <__modsi3+0x18>
     11e:	375d                	jal	c4 <__hidden___udivsi3>
     120:	852e                	mv	a0,a1
     122:	8282                	jr	t0
     124:	40b005b3          	neg	a1,a1
     128:	fe055be3          	bgez	a0,11e <__modsi3+0xa>
     12c:	40a00533          	neg	a0,a0
     130:	3f51                	jal	c4 <__hidden___udivsi3>
     132:	40b00533          	neg	a0,a1
     136:	8282                	jr	t0
	...

0000013a <NMI_Handler>:
     13a:	a001                	j	13a <NMI_Handler>

0000013c <HardFault_Handler>:
     13c:	beef07b7          	lui	a5,0xbeef0
     140:	e000e737          	lui	a4,0xe000e
     144:	08078793          	addi	a5,a5,128 # beef0080 <_eusrstack+0x9eeef080>
     148:	c73c                	sw	a5,72(a4)
     14a:	a001                	j	14a <HardFault_Handler+0xe>

0000014c <TIM1_PWMOut_Init>:
     14c:	f5dff2ef          	jal	t0,a8 <__riscv_save_0>
     150:	6505                	lui	a0,0x1
     152:	fd810113          	addi	sp,sp,-40
     156:	4585                	li	a1,1
     158:	81050513          	addi	a0,a0,-2032 # 810 <GPIO_IPD_Unused+0x236>
     15c:	c602                	sw	zero,12(sp)
     15e:	c802                	sw	zero,16(sp)
     160:	ca02                	sw	zero,20(sp)
     162:	cc02                	sw	zero,24(sp)
     164:	ce02                	sw	zero,28(sp)
     166:	d002                	sw	zero,32(sp)
     168:	d202                	sw	zero,36(sp)
     16a:	c002                	sw	zero,0(sp)
     16c:	c202                	sw	zero,4(sp)
     16e:	00011423          	sh	zero,8(sp)
     172:	74a000ef          	jal	ra,8bc <RCC_PB2PeriphClockCmd>
     176:	4761                	li	a4,24
     178:	47c1                	li	a5,16
     17a:	4405                	li	s0,1
     17c:	006c                	addi	a1,sp,12
     17e:	40011537          	lui	a0,0x40011
     182:	ca3a                	sw	a4,20(sp)
     184:	867c                	sh	a5,12(sp)
     186:	c822                	sw	s0,16(sp)
     188:	2ec9                	jal	55a <GPIO_Init>
     18a:	40011537          	lui	a0,0x40011
     18e:	4491                	li	s1,4
     190:	47c1                	li	a5,16
     192:	006c                	addi	a1,sp,12
     194:	80050513          	addi	a0,a0,-2048 # 40010800 <_eusrstack+0x2000f800>
     198:	8664                	sh	s1,12(sp)
     19a:	ca3e                	sw	a5,20(sp)
     19c:	c822                	sw	s0,16(sp)
     19e:	2e75                	jal	55a <GPIO_Init>
     1a0:	40013437          	lui	s0,0x40013
     1a4:	67c1                	lui	a5,0x10
     1a6:	06078793          	addi	a5,a5,96 # 10060 <_data_lma+0xc6e8>
     1aa:	082c                	addi	a1,sp,24
     1ac:	c0040513          	addi	a0,s0,-1024 # 40012c00 <_eusrstack+0x20011c00>
     1b0:	cc3e                	sw	a5,24(sp)
     1b2:	00011f23          	sh	zero,30(sp)
     1b6:	02011023          	sh	zero,32(sp)
     1ba:	78c000ef          	jal	ra,946 <TIM_OC4Init>
     1be:	0ff00793          	li	a5,255
     1c2:	858a                	mv	a1,sp
     1c4:	c0040513          	addi	a0,s0,-1024
     1c8:	c23e                	sw	a5,4(sp)
     1ca:	c026                	sw	s1,0(sp)
     1cc:	70e000ef          	jal	ra,8da <TIM_TimeBaseInit>
     1d0:	c0040513          	addi	a0,s0,-1024
     1d4:	4581                	li	a1,0
     1d6:	09d000ef          	jal	ra,a72 <TIM_OC4PreloadConfig>
     1da:	c0040513          	addi	a0,s0,-1024
     1de:	4585                	li	a1,1
     1e0:	03b000ef          	jal	ra,a1a <TIM_ARRPreloadConfig>
     1e4:	c0040513          	addi	a0,s0,-1024
     1e8:	4585                	li	a1,1
     1ea:	01b000ef          	jal	ra,a04 <TIM_CtrlPWMOutputs>
     1ee:	4585                	li	a1,1
     1f0:	c0040513          	addi	a0,s0,-1024
     1f4:	7ba000ef          	jal	ra,9ae <TIM_Cmd>
     1f8:	02810113          	addi	sp,sp,40
     1fc:	bd5d                	j	b2 <__riscv_restore_0>

000001fe <fluctuate>:
     1fe:	eabff2ef          	jal	t0,a8 <__riscv_save_0>
     202:	678d                	lui	a5,0x3
     204:	7f47a583          	lw	a1,2036(a5) # 37f4 <__retarget_lock_release_recursive+0x4>
     208:	1161                	addi	sp,sp,-8
     20a:	842a                	mv	s0,a0
     20c:	139020ef          	jal	ra,2b44 <__lesf2>
     210:	06055c63          	bgez	a0,288 <__stack_size+0x88>
     214:	85a2                	mv	a1,s0
     216:	8522                	mv	a0,s0
     218:	5ce020ef          	jal	ra,27e6 <__addsf3>
     21c:	85a2                	mv	a1,s0
     21e:	1bf020ef          	jal	ra,2bdc <__mulsf3>
     222:	85a2                	mv	a1,s0
     224:	5c2020ef          	jal	ra,27e6 <__addsf3>
     228:	842a                	mv	s0,a0
     22a:	138030ef          	jal	ra,3362 <__extendsfdf2>
     22e:	6711                	lui	a4,0x4
     230:	81072603          	lw	a2,-2032(a4) # 3810 <__retarget_lock_release_recursive+0x20>
     234:	81472683          	lw	a3,-2028(a4)
     238:	c02a                	sw	a0,0(sp)
     23a:	84ae                	mv	s1,a1
     23c:	776010ef          	jal	ra,19b2 <__ledf2>
     240:	00054e63          	bltz	a0,25c <__stack_size+0x5c>
     244:	6711                	lui	a4,0x4
     246:	4782                	lw	a5,0(sp)
     248:	81872603          	lw	a2,-2024(a4) # 3818 <__retarget_lock_release_recursive+0x28>
     24c:	81c72683          	lw	a3,-2020(a4)
     250:	853e                	mv	a0,a5
     252:	85a6                	mv	a1,s1
     254:	67c010ef          	jal	ra,18d0 <__gedf2>
     258:	02a05563          	blez	a0,282 <__stack_size+0x82>
     25c:	370030ef          	jal	ra,35cc <rand>
     260:	38400593          	li	a1,900
     264:	3d45                	jal	114 <__modsi3>
     266:	06450513          	addi	a0,a0,100
     26a:	50c020ef          	jal	ra,2776 <__floatsidf>
     26e:	6791                	lui	a5,0x4
     270:	8207a603          	lw	a2,-2016(a5) # 3820 <__retarget_lock_release_recursive+0x30>
     274:	8247a683          	lw	a3,-2012(a5)
     278:	7e9000ef          	jal	ra,1260 <__divdf3>
     27c:	18c030ef          	jal	ra,3408 <__truncdfsf2>
     280:	842a                	mv	s0,a0
     282:	8522                	mv	a0,s0
     284:	0121                	addi	sp,sp,8
     286:	b535                	j	b2 <__riscv_restore_0>
     288:	8522                	mv	a0,s0
     28a:	0d8030ef          	jal	ra,3362 <__extendsfdf2>
     28e:	6791                	lui	a5,0x4
     290:	84aa                	mv	s1,a0
     292:	842e                	mv	s0,a1
     294:	862a                	mv	a2,a0
     296:	86ae                	mv	a3,a1
     298:	8087a503          	lw	a0,-2040(a5) # 3808 <__retarget_lock_release_recursive+0x18>
     29c:	80c7a583          	lw	a1,-2036(a5)
     2a0:	56d010ef          	jal	ra,200c <__subdf3>
     2a4:	862a                	mv	a2,a0
     2a6:	86ae                	mv	a3,a1
     2a8:	c22a                	sw	a0,4(sp)
     2aa:	c02e                	sw	a1,0(sp)
     2ac:	0b9000ef          	jal	ra,b64 <__adddf3>
     2b0:	4712                	lw	a4,4(sp)
     2b2:	4782                	lw	a5,0(sp)
     2b4:	863a                	mv	a2,a4
     2b6:	86be                	mv	a3,a5
     2b8:	7d6010ef          	jal	ra,1a8e <__muldf3>
     2bc:	862a                	mv	a2,a0
     2be:	86ae                	mv	a3,a1
     2c0:	8526                	mv	a0,s1
     2c2:	85a2                	mv	a1,s0
     2c4:	549010ef          	jal	ra,200c <__subdf3>
     2c8:	140030ef          	jal	ra,3408 <__truncdfsf2>
     2cc:	bfb1                	j	228 <__stack_size+0x28>

000002ce <main>:
     2ce:	ddbff2ef          	jal	t0,a8 <__riscv_save_0>
     2d2:	1111                	addi	sp,sp,-28
     2d4:	4505                	li	a0,1
     2d6:	23c5                	jal	8b6 <NVIC_PriorityGroupConfig>
     2d8:	2245                	jal	478 <SystemCoreClockUpdate>
     2da:	007000ef          	jal	ra,ae0 <Delay_Init>
     2de:	35bd                	jal	14c <TIM1_PWMOut_Init>
     2e0:	00000793          	li	a5,0
     2e4:	c23e                	sw	a5,4(sp)
     2e6:	678d                	lui	a5,0x3
     2e8:	7f87a783          	lw	a5,2040(a5) # 37f8 <__retarget_lock_release_recursive+0x8>
     2ec:	c03e                	sw	a5,0(sp)
     2ee:	6791                	lui	a5,0x4
     2f0:	8287a703          	lw	a4,-2008(a5) # 3828 <__retarget_lock_release_recursive+0x38>
     2f4:	82c7a783          	lw	a5,-2004(a5)
     2f8:	c43a                	sw	a4,8(sp)
     2fa:	c63e                	sw	a5,12(sp)
     2fc:	4502                	lw	a0,0(sp)
     2fe:	3701                	jal	1fe <fluctuate>
     300:	85aa                	mv	a1,a0
     302:	c02a                	sw	a0,0(sp)
     304:	4512                	lw	a0,4(sp)
     306:	3b7020ef          	jal	ra,2ebc <__subsf3>
     30a:	058030ef          	jal	ra,3362 <__extendsfdf2>
     30e:	4622                	lw	a2,8(sp)
     310:	46b2                	lw	a3,12(sp)
     312:	5be010ef          	jal	ra,18d0 <__gedf2>
     316:	4605                	li	a2,1
     318:	00a04363          	bgtz	a0,31e <main+0x50>
     31c:	4601                	li	a2,0
     31e:	40011537          	lui	a0,0x40011
     322:	4591                	li	a1,4
     324:	80050513          	addi	a0,a0,-2048 # 40010800 <_eusrstack+0x2000f800>
     328:	2465                	jal	5d0 <GPIO_WriteBit>
     32a:	6711                	lui	a4,0x4
     32c:	83472783          	lw	a5,-1996(a4) # 3834 <__retarget_lock_release_recursive+0x44>
     330:	83072703          	lw	a4,-2000(a4)
     334:	4405                	li	s0,1
     336:	ca3e                	sw	a5,20(sp)
     338:	c83a                	sw	a4,16(sp)
     33a:	4592                	lw	a1,4(sp)
     33c:	4502                	lw	a0,0(sp)
     33e:	37f020ef          	jal	ra,2ebc <__subsf3>
     342:	84aa                	mv	s1,a0
     344:	8522                	mv	a0,s0
     346:	749020ef          	jal	ra,328e <__floatsisf>
     34a:	85aa                	mv	a1,a0
     34c:	8526                	mv	a0,s1
     34e:	08f020ef          	jal	ra,2bdc <__mulsf3>
     352:	010030ef          	jal	ra,3362 <__extendsfdf2>
     356:	4642                	lw	a2,16(sp)
     358:	46d2                	lw	a3,20(sp)
     35a:	0405                	addi	s0,s0,1
     35c:	705000ef          	jal	ra,1260 <__divdf3>
     360:	cc2a                	sw	a0,24(sp)
     362:	4512                	lw	a0,4(sp)
     364:	84ae                	mv	s1,a1
     366:	7fd020ef          	jal	ra,3362 <__extendsfdf2>
     36a:	4762                	lw	a4,24(sp)
     36c:	862a                	mv	a2,a0
     36e:	86ae                	mv	a3,a1
     370:	853a                	mv	a0,a4
     372:	85a6                	mv	a1,s1
     374:	7f0000ef          	jal	ra,b64 <__adddf3>
     378:	090030ef          	jal	ra,3408 <__truncdfsf2>
     37c:	670d                	lui	a4,0x3
     37e:	7fc72583          	lw	a1,2044(a4) # 37fc <__retarget_lock_release_recursive+0xc>
     382:	05b020ef          	jal	ra,2bdc <__mulsf3>
     386:	6711                	lui	a4,0x4
     388:	80072583          	lw	a1,-2048(a4) # 3800 <__retarget_lock_release_recursive+0x10>
     38c:	45a020ef          	jal	ra,27e6 <__addsf3>
     390:	6ad020ef          	jal	ra,323c <__fixunssfsi>
     394:	01051593          	slli	a1,a0,0x10
     398:	40013537          	lui	a0,0x40013
     39c:	81c1                	srli	a1,a1,0x10
     39e:	c0050513          	addi	a0,a0,-1024 # 40012c00 <_eusrstack+0x20011c00>
     3a2:	716000ef          	jal	ra,ab8 <TIM_SetCompare4>
     3a6:	4551                	li	a0,20
     3a8:	768000ef          	jal	ra,b10 <Delay_Ms>
     3ac:	472d                	li	a4,11
     3ae:	f8e416e3          	bne	s0,a4,33a <main+0x6c>
     3b2:	4782                	lw	a5,0(sp)
     3b4:	c23e                	sw	a5,4(sp)
     3b6:	b799                	j	2fc <main+0x2e>

000003b8 <SystemInit>:
     3b8:	cf1ff2ef          	jal	t0,a8 <__riscv_save_0>
     3bc:	4689                	li	a3,2
     3be:	400227b7          	lui	a5,0x40022
     3c2:	40021437          	lui	s0,0x40021
     3c6:	c394                	sw	a3,0(a5)
     3c8:	401c                	lw	a5,0(s0)
     3ca:	68ff0737          	lui	a4,0x68ff0
     3ce:	74c1                	lui	s1,0xffff0
     3d0:	0017e793          	ori	a5,a5,1
     3d4:	c01c                	sw	a5,0(s0)
     3d6:	405c                	lw	a5,4(s0)
     3d8:	14fd                	addi	s1,s1,-1 # fffeffff <_eusrstack+0xdffeefff>
     3da:	8ff9                	and	a5,a5,a4
     3dc:	c05c                	sw	a5,4(s0)
     3de:	401c                	lw	a5,0(s0)
     3e0:	fed70737          	lui	a4,0xfed70
     3e4:	176d                	addi	a4,a4,-5 # fed6fffb <_eusrstack+0xded6effb>
     3e6:	8ff9                	and	a5,a5,a4
     3e8:	00100737          	lui	a4,0x100
     3ec:	8fd9                	or	a5,a5,a4
     3ee:	c01c                	sw	a5,0(s0)
     3f0:	401c                	lw	a5,0(s0)
     3f2:	fffc0737          	lui	a4,0xfffc0
     3f6:	177d                	addi	a4,a4,-1 # fffbffff <_eusrstack+0xdffbefff>
     3f8:	8ff9                	and	a5,a5,a4
     3fa:	c01c                	sw	a5,0(s0)
     3fc:	405c                	lw	a5,4(s0)
     3fe:	8fe5                	and	a5,a5,s1
     400:	c05c                	sw	a5,4(s0)
     402:	009d07b7          	lui	a5,0x9d0
     406:	c41c                	sw	a5,8(s0)
     408:	4c1c                	lw	a5,24(s0)
     40a:	0207e793          	ori	a5,a5,32
     40e:	cc1c                	sw	a5,24(s0)
     410:	400117b7          	lui	a5,0x40011
     414:	40078793          	addi	a5,a5,1024 # 40011400 <_eusrstack+0x20010400>
     418:	4398                	lw	a4,0(a5)
     41a:	f0f77713          	andi	a4,a4,-241
     41e:	c398                	sw	a4,0(a5)
     420:	4398                	lw	a4,0(a5)
     422:	08076713          	ori	a4,a4,128
     426:	c398                	sw	a4,0(a5)
     428:	cb94                	sw	a3,16(a5)
     42a:	2a45                	jal	5da <GPIO_IPD_Unused>
     42c:	405c                	lw	a5,4(s0)
     42e:	01000737          	lui	a4,0x1000
     432:	020006b7          	lui	a3,0x2000
     436:	c05c                	sw	a5,4(s0)
     438:	405c                	lw	a5,4(s0)
     43a:	8fe5                	and	a5,a5,s1
     43c:	c05c                	sw	a5,4(s0)
     43e:	405c                	lw	a5,4(s0)
     440:	c05c                	sw	a5,4(s0)
     442:	401c                	lw	a5,0(s0)
     444:	8fd9                	or	a5,a5,a4
     446:	c01c                	sw	a5,0(s0)
     448:	400217b7          	lui	a5,0x40021
     44c:	4398                	lw	a4,0(a5)
     44e:	8f75                	and	a4,a4,a3
     450:	df75                	beqz	a4,44c <SystemInit+0x94>
     452:	43d8                	lw	a4,4(a5)
     454:	400216b7          	lui	a3,0x40021
     458:	9b71                	andi	a4,a4,-4
     45a:	c3d8                	sw	a4,4(a5)
     45c:	43d8                	lw	a4,4(a5)
     45e:	00276713          	ori	a4,a4,2
     462:	c3d8                	sw	a4,4(a5)
     464:	4721                	li	a4,8
     466:	42dc                	lw	a5,4(a3)
     468:	8bb1                	andi	a5,a5,12
     46a:	fee79ee3          	bne	a5,a4,466 <SystemInit+0xae>
     46e:	400227b7          	lui	a5,0x40022
     472:	4709                	li	a4,2
     474:	c398                	sw	a4,0(a5)
     476:	b935                	j	b2 <__riscv_restore_0>

00000478 <SystemCoreClockUpdate>:
     478:	40021737          	lui	a4,0x40021
     47c:	435c                	lw	a5,4(a4)
     47e:	46a1                	li	a3,8
     480:	8bb1                	andi	a5,a5,12
     482:	04d79263          	bne	a5,a3,4c6 <SystemCoreClockUpdate+0x4e>
     486:	435c                	lw	a5,4(a4)
     488:	02dc7537          	lui	a0,0x2dc7
     48c:	c0050513          	addi	a0,a0,-1024 # 2dc6c00 <_data_lma+0x2dc3288>
     490:	400216b7          	lui	a3,0x40021
     494:	42d8                	lw	a4,4(a3)
     496:	200007b7          	lui	a5,0x20000
     49a:	00078793          	mv	a5,a5
     49e:	8311                	srli	a4,a4,0x4
     4a0:	8b3d                	andi	a4,a4,15
     4a2:	97ba                	add	a5,a5,a4
     4a4:	239c                	lbu	a5,0(a5)
     4a6:	42d8                	lw	a4,4(a3)
     4a8:	0ff7f593          	zext.b	a1,a5
     4ac:	08077713          	andi	a4,a4,128
     4b0:	00f557b3          	srl	a5,a0,a5
     4b4:	ef11                	bnez	a4,4d0 <SystemCoreClockUpdate+0x58>
     4b6:	bf3ff2ef          	jal	t0,a8 <__riscv_save_0>
     4ba:	3129                	jal	c4 <__hidden___udivsi3>
     4bc:	20000737          	lui	a4,0x20000
     4c0:	00a72823          	sw	a0,16(a4) # 20000010 <SystemCoreClock>
     4c4:	b6fd                	j	b2 <__riscv_restore_0>
     4c6:	016e3537          	lui	a0,0x16e3
     4ca:	60050513          	addi	a0,a0,1536 # 16e3600 <_data_lma+0x16dfc88>
     4ce:	b7c9                	j	490 <SystemCoreClockUpdate+0x18>
     4d0:	20000737          	lui	a4,0x20000
     4d4:	00f72823          	sw	a5,16(a4) # 20000010 <SystemCoreClock>
     4d8:	8082                	ret

000004da <ADC1_IRQHandler>:
     4da:	a001                	j	4da <ADC1_IRQHandler>

000004dc <handle_reset>:
     4dc:	20000197          	auipc	gp,0x20000
     4e0:	39c18193          	addi	gp,gp,924 # 20000878 <__global_pointer$>
     4e4:	78818113          	addi	sp,gp,1928 # 20001000 <_eusrstack>
     4e8:	00003517          	auipc	a0,0x3
     4ec:	49050513          	addi	a0,a0,1168 # 3978 <_data_lma>
     4f0:	20000597          	auipc	a1,0x20000
     4f4:	b1058593          	addi	a1,a1,-1264 # 20000000 <HBPrescTable>
     4f8:	80818613          	addi	a2,gp,-2040 # 20000080 <__malloc_sbrk_start>
     4fc:	00c5fa63          	bgeu	a1,a2,510 <handle_reset+0x34>
     500:	00052283          	lw	t0,0(a0)
     504:	0055a023          	sw	t0,0(a1)
     508:	0511                	addi	a0,a0,4
     50a:	0591                	addi	a1,a1,4
     50c:	fec5eae3          	bltu	a1,a2,500 <handle_reset+0x24>
     510:	80818513          	addi	a0,gp,-2040 # 20000080 <__malloc_sbrk_start>
     514:	82018593          	addi	a1,gp,-2016 # 20000098 <_ebss>
     518:	00b57763          	bgeu	a0,a1,526 <handle_reset+0x4a>
     51c:	00052023          	sw	zero,0(a0)
     520:	0511                	addi	a0,a0,4
     522:	feb56de3          	bltu	a0,a1,51c <handle_reset+0x40>
     526:	6289                	lui	t0,0x2
     528:	88028293          	addi	t0,t0,-1920 # 1880 <__divdf3+0x620>
     52c:	30029073          	.4byte	0x30029073
     530:	428d                	li	t0,3
     532:	80429073          	.4byte	0x80429073
     536:	00000297          	auipc	t0,0x0
     53a:	aca28293          	addi	t0,t0,-1334 # 0 <_sinit>
     53e:	0032e293          	ori	t0,t0,3
     542:	30529073          	.4byte	0x30529073
     546:	e73ff0ef          	jal	ra,3b8 <SystemInit>
     54a:	00000297          	auipc	t0,0x0
     54e:	d8428293          	addi	t0,t0,-636 # 2ce <main>
     552:	34129073          	.4byte	0x34129073
     556:	30200073          	mret

0000055a <GPIO_Init>:
     55a:	4594                	lw	a3,8(a1)
     55c:	0106f793          	andi	a5,a3,16
     560:	00f6f313          	andi	t1,a3,15
     564:	c781                	beqz	a5,56c <GPIO_Init+0x12>
     566:	41dc                	lw	a5,4(a1)
     568:	00f36333          	or	t1,t1,a5
     56c:	0005d283          	lhu	t0,0(a1)
     570:	0ff2f793          	zext.b	a5,t0
     574:	cfa9                	beqz	a5,5ce <GPIO_Init+0x74>
     576:	410c                	lw	a1,0(a0)
     578:	1161                	addi	sp,sp,-8
     57a:	c222                	sw	s0,4(sp)
     57c:	c026                	sw	s1,0(sp)
     57e:	4781                	li	a5,0
     580:	02800393          	li	t2,40
     584:	443d                	li	s0,15
     586:	04800493          	li	s1,72
     58a:	4705                	li	a4,1
     58c:	00f71733          	sll	a4,a4,a5
     590:	00e2f633          	and	a2,t0,a4
     594:	02c71063          	bne	a4,a2,5b4 <GPIO_Init+0x5a>
     598:	02769763          	bne	a3,t2,5c6 <GPIO_Init+0x6c>
     59c:	c958                	sw	a4,20(a0)
     59e:	00279613          	slli	a2,a5,0x2
     5a2:	00c41733          	sll	a4,s0,a2
     5a6:	fff74713          	not	a4,a4
     5aa:	8f6d                	and	a4,a4,a1
     5ac:	00c31633          	sll	a2,t1,a2
     5b0:	00e665b3          	or	a1,a2,a4
     5b4:	0785                	addi	a5,a5,1 # 20000001 <HBPrescTable+0x1>
     5b6:	4721                	li	a4,8
     5b8:	fce799e3          	bne	a5,a4,58a <GPIO_Init+0x30>
     5bc:	4412                	lw	s0,4(sp)
     5be:	c10c                	sw	a1,0(a0)
     5c0:	4482                	lw	s1,0(sp)
     5c2:	0121                	addi	sp,sp,8
     5c4:	8082                	ret
     5c6:	fc969ce3          	bne	a3,s1,59e <GPIO_Init+0x44>
     5ca:	c918                	sw	a4,16(a0)
     5cc:	bfc9                	j	59e <GPIO_Init+0x44>
     5ce:	8082                	ret

000005d0 <GPIO_WriteBit>:
     5d0:	c219                	beqz	a2,5d6 <GPIO_WriteBit+0x6>
     5d2:	c90c                	sw	a1,16(a0)
     5d4:	8082                	ret
     5d6:	c94c                	sw	a1,20(a0)
     5d8:	8082                	ret

000005da <GPIO_IPD_Unused>:
     5da:	acfff2ef          	jal	t0,a8 <__riscv_save_0>
     5de:	1151                	addi	sp,sp,-12
     5e0:	4585                	li	a1,1
     5e2:	03c00513          	li	a0,60
     5e6:	c002                	sw	zero,0(sp)
     5e8:	c202                	sw	zero,4(sp)
     5ea:	c402                	sw	zero,8(sp)
     5ec:	2cc1                	jal	8bc <RCC_PB2PeriphClockCmd>
     5ee:	1ffff7b7          	lui	a5,0x1ffff
     5f2:	7047a703          	lw	a4,1796(a5) # 1ffff704 <_data_lma+0x1fffbd8c>
     5f6:	005206b7          	lui	a3,0x520
     5fa:	60068693          	addi	a3,a3,1536 # 520600 <_data_lma+0x51cc88>
     5fe:	f0f77793          	andi	a5,a4,-241
     602:	0ad78563          	beq	a5,a3,6ac <GPIO_IPD_Unused+0xd2>
     606:	0cf6e163          	bltu	a3,a5,6c8 <GPIO_IPD_Unused+0xee>
     60a:	002406b7          	lui	a3,0x240
     60e:	60068693          	addi	a3,a3,1536 # 240600 <_data_lma+0x23cc88>
     612:	1ed78f63          	beq	a5,a3,810 <GPIO_IPD_Unused+0x236>
     616:	02f6ef63          	bltu	a3,a5,654 <GPIO_IPD_Unused+0x7a>
     61a:	002206b7          	lui	a3,0x220
     61e:	60068693          	addi	a3,a3,1536 # 220600 <_data_lma+0x21cc88>
     622:	24d78e63          	beq	a5,a3,87e <GPIO_IPD_Unused+0x2a4>
     626:	00f6ef63          	bltu	a3,a5,644 <GPIO_IPD_Unused+0x6a>
     62a:	77c1                	lui	a5,0xffff0
     62c:	f0f78793          	addi	a5,a5,-241 # fffeff0f <_eusrstack+0xdffeef0f>
     630:	8ff9                	and	a5,a5,a4
     632:	00200737          	lui	a4,0x200
     636:	60070713          	addi	a4,a4,1536 # 200600 <_data_lma+0x1fcc88>
     63a:	00e79b63          	bne	a5,a4,650 <GPIO_IPD_Unused+0x76>
     63e:	0f900793          	li	a5,249
     642:	a82d                	j	67c <GPIO_IPD_Unused+0xa2>
     644:	00230737          	lui	a4,0x230
     648:	60070713          	addi	a4,a4,1536 # 230600 <_data_lma+0x22cc88>
     64c:	20e78363          	beq	a5,a4,852 <GPIO_IPD_Unused+0x278>
     650:	0131                	addi	sp,sp,12
     652:	b485                	j	b2 <__riscv_restore_0>
     654:	005006b7          	lui	a3,0x500
     658:	60068693          	addi	a3,a3,1536 # 500600 <_data_lma+0x4fcc88>
     65c:	1ad78363          	beq	a5,a3,802 <GPIO_IPD_Unused+0x228>
     660:	04f6e063          	bltu	a3,a5,6a0 <GPIO_IPD_Unused+0xc6>
     664:	77c1                	lui	a5,0xffff0
     666:	f0f78793          	addi	a5,a5,-241 # fffeff0f <_eusrstack+0xdffeef0f>
     66a:	8f7d                	and	a4,a4,a5
     66c:	004007b7          	lui	a5,0x400
     670:	60078793          	addi	a5,a5,1536 # 400600 <_data_lma+0x3fcc88>
     674:	fce79ee3          	bne	a5,a4,650 <GPIO_IPD_Unused+0x76>
     678:	0e900793          	li	a5,233
     67c:	40011437          	lui	s0,0x40011
     680:	807c                	sh	a5,0(sp)
     682:	858a                	mv	a1,sp
     684:	02800793          	li	a5,40
     688:	80040513          	addi	a0,s0,-2048 # 40010800 <_eusrstack+0x2000f800>
     68c:	c43e                	sw	a5,8(sp)
     68e:	35f1                	jal	55a <GPIO_Init>
     690:	07f00793          	li	a5,127
     694:	807c                	sh	a5,0(sp)
     696:	858a                	mv	a1,sp
     698:	c0040513          	addi	a0,s0,-1024
     69c:	3d7d                	jal	55a <GPIO_Init>
     69e:	bf4d                	j	650 <GPIO_IPD_Unused+0x76>
     6a0:	00510737          	lui	a4,0x510
     6a4:	60070713          	addi	a4,a4,1536 # 510600 <_data_lma+0x50cc88>
     6a8:	fae794e3          	bne	a5,a4,650 <GPIO_IPD_Unused+0x76>
     6ac:	06900793          	li	a5,105
     6b0:	40011437          	lui	s0,0x40011
     6b4:	807c                	sh	a5,0(sp)
     6b6:	858a                	mv	a1,sp
     6b8:	02800793          	li	a5,40
     6bc:	80040513          	addi	a0,s0,-2048 # 40010800 <_eusrstack+0x2000f800>
     6c0:	c43e                	sw	a5,8(sp)
     6c2:	3d61                	jal	55a <GPIO_Init>
     6c4:	47ad                	li	a5,11
     6c6:	b7f9                	j	694 <GPIO_IPD_Unused+0xba>
     6c8:	00640737          	lui	a4,0x640
     6cc:	60070713          	addi	a4,a4,1536 # 640600 <_data_lma+0x63cc88>
     6d0:	f6e787e3          	beq	a5,a4,63e <GPIO_IPD_Unused+0x64>
     6d4:	06f76163          	bltu	a4,a5,736 <GPIO_IPD_Unused+0x15c>
     6d8:	00620737          	lui	a4,0x620
     6dc:	60070713          	addi	a4,a4,1536 # 620600 <_data_lma+0x61cc88>
     6e0:	f8e78ce3          	beq	a5,a4,678 <GPIO_IPD_Unused+0x9e>
     6e4:	04f76463          	bltu	a4,a5,72c <GPIO_IPD_Unused+0x152>
     6e8:	00530737          	lui	a4,0x530
     6ec:	60070713          	addi	a4,a4,1536 # 530600 <_data_lma+0x52cc88>
     6f0:	0ce78d63          	beq	a5,a4,7ca <GPIO_IPD_Unused+0x1f0>
     6f4:	00610737          	lui	a4,0x610
     6f8:	60070713          	addi	a4,a4,1536 # 610600 <_data_lma+0x60cc88>
     6fc:	f4e79ae3          	bne	a5,a4,650 <GPIO_IPD_Unused+0x76>
     700:	08000793          	li	a5,128
     704:	40011437          	lui	s0,0x40011
     708:	807c                	sh	a5,0(sp)
     70a:	858a                	mv	a1,sp
     70c:	02800793          	li	a5,40
     710:	80040513          	addi	a0,s0,-2048 # 40010800 <_eusrstack+0x2000f800>
     714:	c43e                	sw	a5,8(sp)
     716:	3591                	jal	55a <GPIO_Init>
     718:	07400793          	li	a5,116
     71c:	858a                	mv	a1,sp
     71e:	c0040513          	addi	a0,s0,-1024
     722:	807c                	sh	a5,0(sp)
     724:	3d1d                	jal	55a <GPIO_Init>
     726:	0c800793          	li	a5,200
     72a:	a0ad                	j	794 <GPIO_IPD_Unused+0x1ba>
     72c:	00630737          	lui	a4,0x630
     730:	60070713          	addi	a4,a4,1536 # 630600 <_data_lma+0x62cc88>
     734:	b781                	j	674 <GPIO_IPD_Unused+0x9a>
     736:	00731737          	lui	a4,0x731
     73a:	80070713          	addi	a4,a4,-2048 # 730800 <_data_lma+0x72ce88>
     73e:	02e78663          	beq	a5,a4,76a <GPIO_IPD_Unused+0x190>
     742:	00f76b63          	bltu	a4,a5,758 <GPIO_IPD_Unused+0x17e>
     746:	00701737          	lui	a4,0x701
     74a:	80070713          	addi	a4,a4,-2048 # 700800 <_data_lma+0x6fce88>
     74e:	04e78863          	beq	a5,a4,79e <GPIO_IPD_Unused+0x1c4>
     752:	00710737          	lui	a4,0x710
     756:	b74d                	j	6f8 <GPIO_IPD_Unused+0x11e>
     758:	00741737          	lui	a4,0x741
     75c:	80070713          	addi	a4,a4,-2048 # 740800 <_data_lma+0x73ce88>
     760:	eee798e3          	bne	a5,a4,650 <GPIO_IPD_Unused+0x76>
     764:	0c000793          	li	a5,192
     768:	bf71                	j	704 <GPIO_IPD_Unused+0x12a>
     76a:	0c000793          	li	a5,192
     76e:	40011437          	lui	s0,0x40011
     772:	807c                	sh	a5,0(sp)
     774:	858a                	mv	a1,sp
     776:	02800793          	li	a5,40
     77a:	80040513          	addi	a0,s0,-2048 # 40010800 <_eusrstack+0x2000f800>
     77e:	c43e                	sw	a5,8(sp)
     780:	3be9                	jal	55a <GPIO_Init>
     782:	07400793          	li	a5,116
     786:	858a                	mv	a1,sp
     788:	c0040513          	addi	a0,s0,-1024
     78c:	807c                	sh	a5,0(sp)
     78e:	33f1                	jal	55a <GPIO_Init>
     790:	0c900793          	li	a5,201
     794:	807c                	sh	a5,0(sp)
     796:	858a                	mv	a1,sp
     798:	40011537          	lui	a0,0x40011
     79c:	b701                	j	69c <GPIO_IPD_Unused+0xc2>
     79e:	0c000793          	li	a5,192
     7a2:	40011437          	lui	s0,0x40011
     7a6:	807c                	sh	a5,0(sp)
     7a8:	858a                	mv	a1,sp
     7aa:	02800793          	li	a5,40
     7ae:	80040513          	addi	a0,s0,-2048 # 40010800 <_eusrstack+0x2000f800>
     7b2:	c43e                	sw	a5,8(sp)
     7b4:	335d                	jal	55a <GPIO_Init>
     7b6:	07400793          	li	a5,116
     7ba:	858a                	mv	a1,sp
     7bc:	c0040513          	addi	a0,s0,-1024
     7c0:	807c                	sh	a5,0(sp)
     7c2:	3b61                	jal	55a <GPIO_Init>
     7c4:	0cb00793          	li	a5,203
     7c8:	b7f1                	j	794 <GPIO_IPD_Unused+0x1ba>
     7ca:	06900793          	li	a5,105
     7ce:	40011437          	lui	s0,0x40011
     7d2:	807c                	sh	a5,0(sp)
     7d4:	858a                	mv	a1,sp
     7d6:	02800793          	li	a5,40
     7da:	80040513          	addi	a0,s0,-2048 # 40010800 <_eusrstack+0x2000f800>
     7de:	c43e                	sw	a5,8(sp)
     7e0:	3bad                	jal	55a <GPIO_Init>
     7e2:	47ad                	li	a5,11
     7e4:	858a                	mv	a1,sp
     7e6:	c0040513          	addi	a0,s0,-1024
     7ea:	807c                	sh	a5,0(sp)
     7ec:	33bd                	jal	55a <GPIO_Init>
     7ee:	02c00793          	li	a5,44
     7f2:	858a                	mv	a1,sp
     7f4:	40011537          	lui	a0,0x40011
     7f8:	807c                	sh	a5,0(sp)
     7fa:	3385                	jal	55a <GPIO_Init>
     7fc:	06c00793          	li	a5,108
     800:	a0a1                	j	848 <GPIO_IPD_Unused+0x26e>
     802:	0c800793          	li	a5,200
     806:	807c                	sh	a5,0(sp)
     808:	02800793          	li	a5,40
     80c:	c43e                	sw	a5,8(sp)
     80e:	b761                	j	796 <GPIO_IPD_Unused+0x1bc>
     810:	0f900793          	li	a5,249
     814:	40011437          	lui	s0,0x40011
     818:	807c                	sh	a5,0(sp)
     81a:	858a                	mv	a1,sp
     81c:	02800793          	li	a5,40
     820:	80040513          	addi	a0,s0,-2048 # 40010800 <_eusrstack+0x2000f800>
     824:	c43e                	sw	a5,8(sp)
     826:	3b15                	jal	55a <GPIO_Init>
     828:	07f00793          	li	a5,127
     82c:	858a                	mv	a1,sp
     82e:	c0040513          	addi	a0,s0,-1024
     832:	807c                	sh	a5,0(sp)
     834:	331d                	jal	55a <GPIO_Init>
     836:	0e900793          	li	a5,233
     83a:	858a                	mv	a1,sp
     83c:	40011537          	lui	a0,0x40011
     840:	807c                	sh	a5,0(sp)
     842:	3b21                	jal	55a <GPIO_Init>
     844:	08d00793          	li	a5,141
     848:	807c                	sh	a5,0(sp)
     84a:	858a                	mv	a1,sp
     84c:	40040513          	addi	a0,s0,1024
     850:	b5b1                	j	69c <GPIO_IPD_Unused+0xc2>
     852:	0f900793          	li	a5,249
     856:	40011437          	lui	s0,0x40011
     85a:	807c                	sh	a5,0(sp)
     85c:	858a                	mv	a1,sp
     85e:	02800793          	li	a5,40
     862:	80040513          	addi	a0,s0,-2048 # 40010800 <_eusrstack+0x2000f800>
     866:	c43e                	sw	a5,8(sp)
     868:	39cd                	jal	55a <GPIO_Init>
     86a:	07f00793          	li	a5,127
     86e:	858a                	mv	a1,sp
     870:	c0040513          	addi	a0,s0,-1024
     874:	807c                	sh	a5,0(sp)
     876:	31d5                	jal	55a <GPIO_Init>
     878:	02600793          	li	a5,38
     87c:	bf9d                	j	7f2 <GPIO_IPD_Unused+0x218>
     87e:	0f900793          	li	a5,249
     882:	40011437          	lui	s0,0x40011
     886:	807c                	sh	a5,0(sp)
     888:	858a                	mv	a1,sp
     88a:	02800793          	li	a5,40
     88e:	80040513          	addi	a0,s0,-2048 # 40010800 <_eusrstack+0x2000f800>
     892:	c43e                	sw	a5,8(sp)
     894:	31d9                	jal	55a <GPIO_Init>
     896:	07f00793          	li	a5,127
     89a:	858a                	mv	a1,sp
     89c:	c0040513          	addi	a0,s0,-1024
     8a0:	807c                	sh	a5,0(sp)
     8a2:	3965                	jal	55a <GPIO_Init>
     8a4:	02000793          	li	a5,32
     8a8:	858a                	mv	a1,sp
     8aa:	40011537          	lui	a0,0x40011
     8ae:	807c                	sh	a5,0(sp)
     8b0:	316d                	jal	55a <GPIO_Init>
     8b2:	47b5                	li	a5,13
     8b4:	bf51                	j	848 <GPIO_IPD_Unused+0x26e>

000008b6 <NVIC_PriorityGroupConfig>:
     8b6:	80a1ac23          	sw	a0,-2024(gp) # 20000090 <NVIC_Priority_Group>
     8ba:	8082                	ret

000008bc <RCC_PB2PeriphClockCmd>:
     8bc:	c599                	beqz	a1,8ca <RCC_PB2PeriphClockCmd+0xe>
     8be:	40021737          	lui	a4,0x40021
     8c2:	4f1c                	lw	a5,24(a4)
     8c4:	8fc9                	or	a5,a5,a0
     8c6:	cf1c                	sw	a5,24(a4)
     8c8:	8082                	ret
     8ca:	400217b7          	lui	a5,0x40021
     8ce:	4f98                	lw	a4,24(a5)
     8d0:	fff54513          	not	a0,a0
     8d4:	8d79                	and	a0,a0,a4
     8d6:	cf88                	sw	a0,24(a5)
     8d8:	8082                	ret

000008da <TIM_TimeBaseInit>:
     8da:	400137b7          	lui	a5,0x40013
     8de:	c0078793          	addi	a5,a5,-1024 # 40012c00 <_eusrstack+0x20011c00>
     8e2:	00f50663          	beq	a0,a5,8ee <TIM_TimeBaseInit+0x14>
     8e6:	400007b7          	lui	a5,0x40000
     8ea:	02f51d63          	bne	a0,a5,924 <TIM_TimeBaseInit+0x4a>
     8ee:	211e                	lhu	a5,0(a0)
     8f0:	21ba                	lhu	a4,2(a1)
     8f2:	07c2                	slli	a5,a5,0x10
     8f4:	83c1                	srli	a5,a5,0x10
     8f6:	f8f7f793          	andi	a5,a5,-113
     8fa:	8fd9                	or	a5,a5,a4
     8fc:	21fa                	lhu	a4,6(a1)
     8fe:	cff7f793          	andi	a5,a5,-769
     902:	8fd9                	or	a5,a5,a4
     904:	a11e                	sh	a5,0(a0)
     906:	21de                	lhu	a5,4(a1)
     908:	b55e                	sh	a5,44(a0)
     90a:	219e                	lhu	a5,0(a1)
     90c:	b51e                	sh	a5,40(a0)
     90e:	400137b7          	lui	a5,0x40013
     912:	c0078793          	addi	a5,a5,-1024 # 40012c00 <_eusrstack+0x20011c00>
     916:	00f51463          	bne	a0,a5,91e <TIM_TimeBaseInit+0x44>
     91a:	259c                	lbu	a5,8(a1)
     91c:	b91e                	sh	a5,48(a0)
     91e:	4785                	li	a5,1
     920:	a95e                	sh	a5,20(a0)
     922:	8082                	ret
     924:	400017b7          	lui	a5,0x40001
     928:	80078793          	addi	a5,a5,-2048 # 40000800 <_eusrstack+0x1ffff800>
     92c:	00f51c63          	bne	a0,a5,944 <TIM_TimeBaseInit+0x6a>
     930:	211e                	lhu	a5,0(a0)
     932:	21ba                	lhu	a4,2(a1)
     934:	07c2                	slli	a5,a5,0x10
     936:	83c1                	srli	a5,a5,0x10
     938:	f8f7f793          	andi	a5,a5,-113
     93c:	8fd9                	or	a5,a5,a4
     93e:	a11e                	sh	a5,0(a0)
     940:	21de                	lhu	a5,4(a1)
     942:	a55e                	sh	a5,12(a0)
     944:	8082                	ret

00000946 <TIM_OC4Init>:
     946:	311e                	lhu	a5,32(a0)
     948:	777d                	lui	a4,0xfffff
     94a:	177d                	addi	a4,a4,-1 # ffffefff <_eusrstack+0xdfffdfff>
     94c:	8ff9                	and	a5,a5,a4
     94e:	b11e                	sh	a5,32(a0)
     950:	311e                	lhu	a5,32(a0)
     952:	2152                	lhu	a2,4(a0)
     954:	2d56                	lhu	a3,28(a0)
     956:	7765                	lui	a4,0xffff9
     958:	cff70713          	addi	a4,a4,-769 # ffff8cff <_eusrstack+0xdfff7cff>
     95c:	8ef9                	and	a3,a3,a4
     95e:	219a                	lhu	a4,0(a1)
     960:	0085d303          	lhu	t1,8(a1)
     964:	0642                	slli	a2,a2,0x10
     966:	0722                	slli	a4,a4,0x8
     968:	8ed9                	or	a3,a3,a4
     96a:	7779                	lui	a4,0xffffe
     96c:	177d                	addi	a4,a4,-1 # ffffdfff <_eusrstack+0xdfffcfff>
     96e:	8ff9                	and	a5,a5,a4
     970:	21ba                	lhu	a4,2(a1)
     972:	06c2                	slli	a3,a3,0x10
     974:	8241                	srli	a2,a2,0x10
     976:	00676733          	or	a4,a4,t1
     97a:	0732                	slli	a4,a4,0xc
     97c:	8fd9                	or	a5,a5,a4
     97e:	40013737          	lui	a4,0x40013
     982:	07c2                	slli	a5,a5,0x10
     984:	c0070713          	addi	a4,a4,-1024 # 40012c00 <_eusrstack+0x20011c00>
     988:	82c1                	srli	a3,a3,0x10
     98a:	83c1                	srli	a5,a5,0x10
     98c:	00e51b63          	bne	a0,a4,9a2 <TIM_OC4Init+0x5c>
     990:	7771                	lui	a4,0xffffc
     992:	177d                	addi	a4,a4,-1 # ffffbfff <_eusrstack+0xdfffafff>
     994:	8f71                	and	a4,a4,a2
     996:	25d2                	lhu	a2,12(a1)
     998:	061a                	slli	a2,a2,0x6
     99a:	8f51                	or	a4,a4,a2
     99c:	01071613          	slli	a2,a4,0x10
     9a0:	8241                	srli	a2,a2,0x10
     9a2:	21fa                	lhu	a4,6(a1)
     9a4:	a152                	sh	a2,4(a0)
     9a6:	ad56                	sh	a3,28(a0)
     9a8:	c138                	sw	a4,64(a0)
     9aa:	b11e                	sh	a5,32(a0)
     9ac:	8082                	ret

000009ae <TIM_Cmd>:
     9ae:	400137b7          	lui	a5,0x40013
     9b2:	c0078793          	addi	a5,a5,-1024 # 40012c00 <_eusrstack+0x20011c00>
     9b6:	c19d                	beqz	a1,9dc <TIM_Cmd+0x2e>
     9b8:	00f50663          	beq	a0,a5,9c4 <TIM_Cmd+0x16>
     9bc:	400007b7          	lui	a5,0x40000
     9c0:	00f51763          	bne	a0,a5,9ce <TIM_Cmd+0x20>
     9c4:	211e                	lhu	a5,0(a0)
     9c6:	0017e793          	ori	a5,a5,1
     9ca:	a11e                	sh	a5,0(a0)
     9cc:	a039                	j	9da <TIM_Cmd+0x2c>
     9ce:	400017b7          	lui	a5,0x40001
     9d2:	80078793          	addi	a5,a5,-2048 # 40000800 <_eusrstack+0x1ffff800>
     9d6:	fef507e3          	beq	a0,a5,9c4 <TIM_Cmd+0x16>
     9da:	8082                	ret
     9dc:	00f50663          	beq	a0,a5,9e8 <TIM_Cmd+0x3a>
     9e0:	400007b7          	lui	a5,0x40000
     9e4:	00f51963          	bne	a0,a5,9f6 <TIM_Cmd+0x48>
     9e8:	211e                	lhu	a5,0(a0)
     9ea:	07c2                	slli	a5,a5,0x10
     9ec:	83c1                	srli	a5,a5,0x10
     9ee:	9bf9                	andi	a5,a5,-2
     9f0:	07c2                	slli	a5,a5,0x10
     9f2:	83c1                	srli	a5,a5,0x10
     9f4:	bfd9                	j	9ca <TIM_Cmd+0x1c>
     9f6:	400017b7          	lui	a5,0x40001
     9fa:	80078793          	addi	a5,a5,-2048 # 40000800 <_eusrstack+0x1ffff800>
     9fe:	fcf51ee3          	bne	a0,a5,9da <TIM_Cmd+0x2c>
     a02:	b7dd                	j	9e8 <TIM_Cmd+0x3a>

00000a04 <TIM_CtrlPWMOutputs>:
     a04:	04455783          	lhu	a5,68(a0) # 40011044 <_eusrstack+0x20010044>
     a08:	c591                	beqz	a1,a14 <TIM_CtrlPWMOutputs+0x10>
     a0a:	6721                	lui	a4,0x8
     a0c:	8fd9                	or	a5,a5,a4
     a0e:	04f51223          	sh	a5,68(a0)
     a12:	8082                	ret
     a14:	07c6                	slli	a5,a5,0x11
     a16:	83c5                	srli	a5,a5,0x11
     a18:	bfdd                	j	a0e <TIM_CtrlPWMOutputs+0xa>

00000a1a <TIM_ARRPreloadConfig>:
     a1a:	400137b7          	lui	a5,0x40013
     a1e:	c0078793          	addi	a5,a5,-1024 # 40012c00 <_eusrstack+0x20011c00>
     a22:	c19d                	beqz	a1,a48 <TIM_ARRPreloadConfig+0x2e>
     a24:	00f50663          	beq	a0,a5,a30 <TIM_ARRPreloadConfig+0x16>
     a28:	400007b7          	lui	a5,0x40000
     a2c:	00f51763          	bne	a0,a5,a3a <TIM_ARRPreloadConfig+0x20>
     a30:	211e                	lhu	a5,0(a0)
     a32:	0807e793          	ori	a5,a5,128
     a36:	a11e                	sh	a5,0(a0)
     a38:	a039                	j	a46 <TIM_ARRPreloadConfig+0x2c>
     a3a:	400017b7          	lui	a5,0x40001
     a3e:	80078793          	addi	a5,a5,-2048 # 40000800 <_eusrstack+0x1ffff800>
     a42:	fef507e3          	beq	a0,a5,a30 <TIM_ARRPreloadConfig+0x16>
     a46:	8082                	ret
     a48:	00f50663          	beq	a0,a5,a54 <TIM_ARRPreloadConfig+0x3a>
     a4c:	400007b7          	lui	a5,0x40000
     a50:	00f51a63          	bne	a0,a5,a64 <TIM_ARRPreloadConfig+0x4a>
     a54:	211e                	lhu	a5,0(a0)
     a56:	07c2                	slli	a5,a5,0x10
     a58:	83c1                	srli	a5,a5,0x10
     a5a:	f7f7f793          	andi	a5,a5,-129
     a5e:	07c2                	slli	a5,a5,0x10
     a60:	83c1                	srli	a5,a5,0x10
     a62:	bfd1                	j	a36 <TIM_ARRPreloadConfig+0x1c>
     a64:	400017b7          	lui	a5,0x40001
     a68:	80078793          	addi	a5,a5,-2048 # 40000800 <_eusrstack+0x1ffff800>
     a6c:	fcf51de3          	bne	a0,a5,a46 <TIM_ARRPreloadConfig+0x2c>
     a70:	b7d5                	j	a54 <TIM_ARRPreloadConfig+0x3a>

00000a72 <TIM_OC4PreloadConfig>:
     a72:	400137b7          	lui	a5,0x40013
     a76:	c0078793          	addi	a5,a5,-1024 # 40012c00 <_eusrstack+0x20011c00>
     a7a:	872e                	mv	a4,a1
     a7c:	00f50663          	beq	a0,a5,a88 <TIM_OC4PreloadConfig+0x16>
     a80:	400007b7          	lui	a5,0x40000
     a84:	00f51d63          	bne	a0,a5,a9e <TIM_OC4PreloadConfig+0x2c>
     a88:	2d4e                	lhu	a1,28(a0)
     a8a:	77fd                	lui	a5,0xfffff
     a8c:	7ff78793          	addi	a5,a5,2047 # fffff7ff <_eusrstack+0xdfffe7ff>
     a90:	8dfd                	and	a1,a1,a5
     a92:	0722                	slli	a4,a4,0x8
     a94:	8dd9                	or	a1,a1,a4
     a96:	05c2                	slli	a1,a1,0x10
     a98:	81c1                	srli	a1,a1,0x10
     a9a:	ad4e                	sh	a1,28(a0)
     a9c:	8082                	ret
     a9e:	400017b7          	lui	a5,0x40001
     aa2:	80078793          	addi	a5,a5,-2048 # 40000800 <_eusrstack+0x1ffff800>
     aa6:	00f51863          	bne	a0,a5,ab6 <TIM_OC4PreloadConfig+0x44>
     aaa:	215e                	lhu	a5,4(a0)
     aac:	07c2                	slli	a5,a5,0x10
     aae:	83c1                	srli	a5,a5,0x10
     ab0:	9bdd                	andi	a5,a5,-9
     ab2:	8ddd                	or	a1,a1,a5
     ab4:	a14e                	sh	a1,4(a0)
     ab6:	8082                	ret

00000ab8 <TIM_SetCompare4>:
     ab8:	400137b7          	lui	a5,0x40013
     abc:	c0078793          	addi	a5,a5,-1024 # 40012c00 <_eusrstack+0x20011c00>
     ac0:	00f50663          	beq	a0,a5,acc <TIM_SetCompare4+0x14>
     ac4:	400007b7          	lui	a5,0x40000
     ac8:	00f51463          	bne	a0,a5,ad0 <TIM_SetCompare4+0x18>
     acc:	c12c                	sw	a1,64(a0)
     ace:	8082                	ret
     ad0:	400017b7          	lui	a5,0x40001
     ad4:	80078793          	addi	a5,a5,-2048 # 40000800 <_eusrstack+0x1ffff800>
     ad8:	00f51363          	bne	a0,a5,ade <TIM_SetCompare4+0x26>
     adc:	ad4e                	sh	a1,28(a0)
     ade:	8082                	ret

00000ae0 <Delay_Init>:
     ae0:	dc8ff2ef          	jal	t0,a8 <__riscv_save_0>
     ae4:	200007b7          	lui	a5,0x20000
     ae8:	0107a503          	lw	a0,16(a5) # 20000010 <SystemCoreClock>
     aec:	007a15b7          	lui	a1,0x7a1
     af0:	20058593          	addi	a1,a1,512 # 7a1200 <_data_lma+0x79d888>
     af4:	dd0ff0ef          	jal	ra,c4 <__hidden___udivsi3>
     af8:	0ff57513          	zext.b	a0,a0
     afc:	80a18f23          	sb	a0,-2018(gp) # 20000096 <p_us>
     b00:	3e800793          	li	a5,1000
     b04:	02f50533          	mul	a0,a0,a5
     b08:	80a19e23          	sh	a0,-2020(gp) # 20000094 <p_ms>
     b0c:	da6ff06f          	j	b2 <__riscv_restore_0>

00000b10 <Delay_Ms>:
     b10:	e000f7b7          	lui	a5,0xe000f
     b14:	43d8                	lw	a4,4(a5)
     b16:	9b79                	andi	a4,a4,-2
     b18:	c3d8                	sw	a4,4(a5)
     b1a:	81c1d703          	lhu	a4,-2020(gp) # 20000094 <p_ms>
     b1e:	02a70733          	mul	a4,a4,a0
     b22:	cb98                	sw	a4,16(a5)
     b24:	0007a423          	sw	zero,8(a5) # e000f008 <_eusrstack+0xc000e008>
     b28:	4398                	lw	a4,0(a5)
     b2a:	00176713          	ori	a4,a4,1
     b2e:	c398                	sw	a4,0(a5)
     b30:	43d8                	lw	a4,4(a5)
     b32:	8b05                	andi	a4,a4,1
     b34:	df75                	beqz	a4,b30 <Delay_Ms+0x20>
     b36:	4398                	lw	a4,0(a5)
     b38:	9b79                	andi	a4,a4,-2
     b3a:	c398                	sw	a4,0(a5)
     b3c:	8082                	ret

00000b3e <_sbrk>:
     b3e:	200006b7          	lui	a3,0x20000
     b42:	87aa                	mv	a5,a0
     b44:	0146a503          	lw	a0,20(a3) # 20000014 <curbrk.0>
     b48:	82018713          	addi	a4,gp,-2016 # 20000098 <_ebss>
     b4c:	97aa                	add	a5,a5,a0
     b4e:	00e7e963          	bltu	a5,a4,b60 <_sbrk+0x22>
     b52:	58818713          	addi	a4,gp,1416 # 20000e00 <_heap_end>
     b56:	00f76563          	bltu	a4,a5,b60 <_sbrk+0x22>
     b5a:	00f6aa23          	sw	a5,20(a3)
     b5e:	8082                	ret
     b60:	557d                	li	a0,-1
     b62:	8082                	ret

00000b64 <__adddf3>:
     b64:	001007b7          	lui	a5,0x100
     b68:	1131                	addi	sp,sp,-20
     b6a:	17fd                	addi	a5,a5,-1 # fffff <_data_lma+0xfc687>
     b6c:	00b7f733          	and	a4,a5,a1
     b70:	0146d313          	srli	t1,a3,0x14
     b74:	8ff5                	and	a5,a5,a3
     b76:	c622                	sw	s0,12(sp)
     b78:	0145d413          	srli	s0,a1,0x14
     b7c:	01d55393          	srli	t2,a0,0x1d
     b80:	01d65293          	srli	t0,a2,0x1d
     b84:	c426                	sw	s1,8(sp)
     b86:	070e                	slli	a4,a4,0x3
     b88:	078e                	slli	a5,a5,0x3
     b8a:	01f5d493          	srli	s1,a1,0x1f
     b8e:	7ff47413          	andi	s0,s0,2047
     b92:	7ff37313          	andi	t1,t1,2047
     b96:	c806                	sw	ra,16(sp)
     b98:	82fd                	srli	a3,a3,0x1f
     b9a:	00e3e733          	or	a4,t2,a4
     b9e:	00f2e7b3          	or	a5,t0,a5
     ba2:	00351593          	slli	a1,a0,0x3
     ba6:	00361293          	slli	t0,a2,0x3
     baa:	406403b3          	sub	t2,s0,t1
     bae:	18d48363          	beq	s1,a3,d34 <__adddf3+0x1d0>
     bb2:	10705b63          	blez	t2,cc8 <__adddf3+0x164>
     bb6:	20030563          	beqz	t1,dc0 <__adddf3+0x25c>
     bba:	7ff00693          	li	a3,2047
     bbe:	52d40c63          	beq	s0,a3,10f6 <__adddf3+0x592>
     bc2:	03800693          	li	a3,56
     bc6:	4605                	li	a2,1
     bc8:	0276ca63          	blt	a3,t2,bfc <__adddf3+0x98>
     bcc:	008006b7          	lui	a3,0x800
     bd0:	8fd5                	or	a5,a5,a3
     bd2:	46fd                	li	a3,31
     bd4:	4476c163          	blt	a3,t2,1016 <__adddf3+0x4b2>
     bd8:	02000693          	li	a3,32
     bdc:	407686b3          	sub	a3,a3,t2
     be0:	00d79633          	sll	a2,a5,a3
     be4:	0072d533          	srl	a0,t0,t2
     be8:	00d296b3          	sll	a3,t0,a3
     bec:	8e49                	or	a2,a2,a0
     bee:	00d036b3          	snez	a3,a3
     bf2:	0077d3b3          	srl	t2,a5,t2
     bf6:	8e55                	or	a2,a2,a3
     bf8:	40770733          	sub	a4,a4,t2
     bfc:	40c58633          	sub	a2,a1,a2
     c00:	00c5b5b3          	sltu	a1,a1,a2
     c04:	8f0d                	sub	a4,a4,a1
     c06:	008007b7          	lui	a5,0x800
     c0a:	00f776b3          	and	a3,a4,a5
     c0e:	24068663          	beqz	a3,e5a <__adddf3+0x2f6>
     c12:	17fd                	addi	a5,a5,-1 # 7fffff <_data_lma+0x7fc687>
     c14:	8f7d                	and	a4,a4,a5
     c16:	2a070663          	beqz	a4,ec2 <__adddf3+0x35e>
     c1a:	853a                	mv	a0,a4
     c1c:	c232                	sw	a2,4(sp)
     c1e:	c03a                	sw	a4,0(sp)
     c20:	145020ef          	jal	ra,3564 <__clzsi2>
     c24:	4702                	lw	a4,0(sp)
     c26:	4612                	lw	a2,4(sp)
     c28:	ff850693          	addi	a3,a0,-8
     c2c:	02000793          	li	a5,32
     c30:	40d785b3          	sub	a1,a5,a3
     c34:	00b655b3          	srl	a1,a2,a1
     c38:	00d71733          	sll	a4,a4,a3
     c3c:	8dd9                	or	a1,a1,a4
     c3e:	00d61633          	sll	a2,a2,a3
     c42:	3286cd63          	blt	a3,s0,f7c <__adddf3+0x418>
     c46:	8e81                	sub	a3,a3,s0
     c48:	0685                	addi	a3,a3,1 # 800001 <_data_lma+0x7fc689>
     c4a:	8f95                	sub	a5,a5,a3
     c4c:	00f61533          	sll	a0,a2,a5
     c50:	00d65733          	srl	a4,a2,a3
     c54:	00a03533          	snez	a0,a0
     c58:	8d59                	or	a0,a0,a4
     c5a:	00f597b3          	sll	a5,a1,a5
     c5e:	00a7e633          	or	a2,a5,a0
     c62:	00d5d733          	srl	a4,a1,a3
     c66:	4401                	li	s0,0
     c68:	00767793          	andi	a5,a2,7
     c6c:	cf81                	beqz	a5,c84 <__adddf3+0x120>
     c6e:	00f67793          	andi	a5,a2,15
     c72:	4691                	li	a3,4
     c74:	00d78863          	beq	a5,a3,c84 <__adddf3+0x120>
     c78:	00460793          	addi	a5,a2,4
     c7c:	00c7b633          	sltu	a2,a5,a2
     c80:	9732                	add	a4,a4,a2
     c82:	863e                	mv	a2,a5
     c84:	008007b7          	lui	a5,0x800
     c88:	8ff9                	and	a5,a5,a4
     c8a:	28078963          	beqz	a5,f1c <__adddf3+0x3b8>
     c8e:	0405                	addi	s0,s0,1
     c90:	7ff00793          	li	a5,2047
     c94:	1af40d63          	beq	s0,a5,e4e <__adddf3+0x2ea>
     c98:	ff8007b7          	lui	a5,0xff800
     c9c:	17fd                	addi	a5,a5,-1 # ff7fffff <_eusrstack+0xdf7fefff>
     c9e:	8ff9                	and	a5,a5,a4
     ca0:	01d79313          	slli	t1,a5,0x1d
     ca4:	820d                	srli	a2,a2,0x3
     ca6:	07a6                	slli	a5,a5,0x9
     ca8:	00c36333          	or	t1,t1,a2
     cac:	83b1                	srli	a5,a5,0xc
     cae:	7ff47413          	andi	s0,s0,2047
     cb2:	85a6                	mv	a1,s1
     cb4:	0452                	slli	s0,s0,0x14
     cb6:	8c5d                	or	s0,s0,a5
     cb8:	05fe                	slli	a1,a1,0x1f
     cba:	40c2                	lw	ra,16(sp)
     cbc:	8dc1                	or	a1,a1,s0
     cbe:	4432                	lw	s0,12(sp)
     cc0:	44a2                	lw	s1,8(sp)
     cc2:	851a                	mv	a0,t1
     cc4:	0151                	addi	sp,sp,20
     cc6:	8082                	ret
     cc8:	10038f63          	beqz	t2,de6 <__adddf3+0x282>
     ccc:	408303b3          	sub	t2,t1,s0
     cd0:	32041663          	bnez	s0,ffc <__adddf3+0x498>
     cd4:	00b76533          	or	a0,a4,a1
     cd8:	28050b63          	beqz	a0,f6e <__adddf3+0x40a>
     cdc:	fff38513          	addi	a0,t2,-1
     ce0:	4a050663          	beqz	a0,118c <__adddf3+0x628>
     ce4:	7ff00413          	li	s0,2047
     ce8:	44838463          	beq	t2,s0,1130 <__adddf3+0x5cc>
     cec:	03800393          	li	t2,56
     cf0:	4605                	li	a2,1
     cf2:	02a3c863          	blt	t2,a0,d22 <__adddf3+0x1be>
     cf6:	83aa                	mv	t2,a0
     cf8:	467d                	li	a2,31
     cfa:	46764063          	blt	a2,t2,115a <__adddf3+0x5f6>
     cfe:	02000513          	li	a0,32
     d02:	40750533          	sub	a0,a0,t2
     d06:	00a71633          	sll	a2,a4,a0
     d0a:	0075d433          	srl	s0,a1,t2
     d0e:	00a59533          	sll	a0,a1,a0
     d12:	8e41                	or	a2,a2,s0
     d14:	00a03533          	snez	a0,a0
     d18:	007753b3          	srl	t2,a4,t2
     d1c:	8e49                	or	a2,a2,a0
     d1e:	407787b3          	sub	a5,a5,t2
     d22:	40c28633          	sub	a2,t0,a2
     d26:	00c2b2b3          	sltu	t0,t0,a2
     d2a:	40578733          	sub	a4,a5,t0
     d2e:	841a                	mv	s0,t1
     d30:	84b6                	mv	s1,a3
     d32:	bdd1                	j	c06 <__adddf3+0xa2>
     d34:	12705863          	blez	t2,e64 <__adddf3+0x300>
     d38:	0e031e63          	bnez	t1,e34 <__adddf3+0x2d0>
     d3c:	0057e6b3          	or	a3,a5,t0
     d40:	22068a63          	beqz	a3,f74 <__adddf3+0x410>
     d44:	fff38613          	addi	a2,t2,-1
     d48:	36060e63          	beqz	a2,10c4 <__adddf3+0x560>
     d4c:	7ff00693          	li	a3,2047
     d50:	46d38463          	beq	t2,a3,11b8 <__adddf3+0x654>
     d54:	03800513          	li	a0,56
     d58:	4685                	li	a3,1
     d5a:	02c54763          	blt	a0,a2,d88 <__adddf3+0x224>
     d5e:	83b2                	mv	t2,a2
     d60:	46fd                	li	a3,31
     d62:	3a76c363          	blt	a3,t2,1108 <__adddf3+0x5a4>
     d66:	02000613          	li	a2,32
     d6a:	40760633          	sub	a2,a2,t2
     d6e:	00c796b3          	sll	a3,a5,a2
     d72:	0072d533          	srl	a0,t0,t2
     d76:	00c29633          	sll	a2,t0,a2
     d7a:	8ec9                	or	a3,a3,a0
     d7c:	00c03633          	snez	a2,a2
     d80:	0077d3b3          	srl	t2,a5,t2
     d84:	8ed1                	or	a3,a3,a2
     d86:	971e                	add	a4,a4,t2
     d88:	00b68633          	add	a2,a3,a1
     d8c:	00d636b3          	sltu	a3,a2,a3
     d90:	9736                	add	a4,a4,a3
     d92:	008007b7          	lui	a5,0x800
     d96:	8ff9                	and	a5,a5,a4
     d98:	c3e9                	beqz	a5,e5a <__adddf3+0x2f6>
     d9a:	0405                	addi	s0,s0,1
     d9c:	7ff00793          	li	a5,2047
     da0:	0af40763          	beq	s0,a5,e4e <__adddf3+0x2ea>
     da4:	ff8007b7          	lui	a5,0xff800
     da8:	17fd                	addi	a5,a5,-1 # ff7fffff <_eusrstack+0xdf7fefff>
     daa:	8ff9                	and	a5,a5,a4
     dac:	00165713          	srli	a4,a2,0x1
     db0:	8a05                	andi	a2,a2,1
     db2:	8f51                	or	a4,a4,a2
     db4:	01f79613          	slli	a2,a5,0x1f
     db8:	8e59                	or	a2,a2,a4
     dba:	0017d713          	srli	a4,a5,0x1
     dbe:	b56d                	j	c68 <__adddf3+0x104>
     dc0:	0057e6b3          	or	a3,a5,t0
     dc4:	1a068863          	beqz	a3,f74 <__adddf3+0x410>
     dc8:	fff38693          	addi	a3,t2,-1
     dcc:	30068b63          	beqz	a3,10e2 <__adddf3+0x57e>
     dd0:	7ff00613          	li	a2,2047
     dd4:	16c38863          	beq	t2,a2,f44 <__adddf3+0x3e0>
     dd8:	03800513          	li	a0,56
     ddc:	4605                	li	a2,1
     dde:	e0d54fe3          	blt	a0,a3,bfc <__adddf3+0x98>
     de2:	83b6                	mv	t2,a3
     de4:	b3fd                	j	bd2 <__adddf3+0x6e>
     de6:	00140313          	addi	t1,s0,1
     dea:	7fe37313          	andi	t1,t1,2046
     dee:	1e031063          	bnez	t1,fce <__adddf3+0x46a>
     df2:	00b763b3          	or	t2,a4,a1
     df6:	0057e333          	or	t1,a5,t0
     dfa:	2a041b63          	bnez	s0,10b0 <__adddf3+0x54c>
     dfe:	3a038163          	beqz	t2,11a0 <__adddf3+0x63c>
     e02:	3c030563          	beqz	t1,11cc <__adddf3+0x668>
     e06:	40558633          	sub	a2,a1,t0
     e0a:	00c5b533          	sltu	a0,a1,a2
     e0e:	40f703b3          	sub	t2,a4,a5
     e12:	40a383b3          	sub	t2,t2,a0
     e16:	00800537          	lui	a0,0x800
     e1a:	00a3f533          	and	a0,t2,a0
     e1e:	40050c63          	beqz	a0,1236 <__adddf3+0x6d2>
     e22:	40b28633          	sub	a2,t0,a1
     e26:	8f99                	sub	a5,a5,a4
     e28:	00c2b2b3          	sltu	t0,t0,a2
     e2c:	40578733          	sub	a4,a5,t0
     e30:	84b6                	mv	s1,a3
     e32:	bd1d                	j	c68 <__adddf3+0x104>
     e34:	7ff00693          	li	a3,2047
     e38:	10d40663          	beq	s0,a3,f44 <__adddf3+0x3e0>
     e3c:	03800613          	li	a2,56
     e40:	4685                	li	a3,1
     e42:	f47643e3          	blt	a2,t2,d88 <__adddf3+0x224>
     e46:	008006b7          	lui	a3,0x800
     e4a:	8fd5                	or	a5,a5,a3
     e4c:	bf11                	j	d60 <__adddf3+0x1fc>
     e4e:	85a6                	mv	a1,s1
     e50:	7ff00413          	li	s0,2047
     e54:	4781                	li	a5,0
     e56:	4301                	li	t1,0
     e58:	bdb1                	j	cb4 <__adddf3+0x150>
     e5a:	00767513          	andi	a0,a2,7
     e5e:	e00518e3          	bnez	a0,c6e <__adddf3+0x10a>
     e62:	a29d                	j	fc8 <__adddf3+0x464>
     e64:	12038263          	beqz	t2,f88 <__adddf3+0x424>
     e68:	408303b3          	sub	t2,t1,s0
     e6c:	1c040963          	beqz	s0,103e <__adddf3+0x4da>
     e70:	7ff00693          	li	a3,2047
     e74:	2cd30963          	beq	t1,a3,1146 <__adddf3+0x5e2>
     e78:	03800613          	li	a2,56
     e7c:	4685                	li	a3,1
     e7e:	02764a63          	blt	a2,t2,eb2 <__adddf3+0x34e>
     e82:	008006b7          	lui	a3,0x800
     e86:	8f55                	or	a4,a4,a3
     e88:	46fd                	li	a3,31
     e8a:	3876c363          	blt	a3,t2,1210 <__adddf3+0x6ac>
     e8e:	02000693          	li	a3,32
     e92:	407686b3          	sub	a3,a3,t2
     e96:	0075d433          	srl	s0,a1,t2
     e9a:	00d59633          	sll	a2,a1,a3
     e9e:	00d71533          	sll	a0,a4,a3
     ea2:	008566b3          	or	a3,a0,s0
     ea6:	00c03633          	snez	a2,a2
     eaa:	007753b3          	srl	t2,a4,t2
     eae:	8ed1                	or	a3,a3,a2
     eb0:	979e                	add	a5,a5,t2
     eb2:	00568633          	add	a2,a3,t0
     eb6:	00d636b3          	sltu	a3,a2,a3
     eba:	00f68733          	add	a4,a3,a5
     ebe:	841a                	mv	s0,t1
     ec0:	bdc9                	j	d92 <__adddf3+0x22e>
     ec2:	8532                	mv	a0,a2
     ec4:	c23a                	sw	a4,4(sp)
     ec6:	c032                	sw	a2,0(sp)
     ec8:	69c020ef          	jal	ra,3564 <__clzsi2>
     ecc:	01850693          	addi	a3,a0,24 # 800018 <_data_lma+0x7fc6a0>
     ed0:	47fd                	li	a5,31
     ed2:	4602                	lw	a2,0(sp)
     ed4:	4712                	lw	a4,4(sp)
     ed6:	d4d7dbe3          	bge	a5,a3,c2c <__adddf3+0xc8>
     eda:	ff850593          	addi	a1,a0,-8
     ede:	00b615b3          	sll	a1,a2,a1
     ee2:	1886c063          	blt	a3,s0,1062 <__adddf3+0x4fe>
     ee6:	40868633          	sub	a2,a3,s0
     eea:	00160693          	addi	a3,a2,1
     eee:	36d7d463          	bge	a5,a3,1256 <__adddf3+0x6f2>
     ef2:	1605                	addi	a2,a2,-31
     ef4:	02000793          	li	a5,32
     ef8:	00c5d633          	srl	a2,a1,a2
     efc:	00f68a63          	beq	a3,a5,f10 <__adddf3+0x3ac>
     f00:	04000793          	li	a5,64
     f04:	8f95                	sub	a5,a5,a3
     f06:	00f597b3          	sll	a5,a1,a5
     f0a:	00f037b3          	snez	a5,a5
     f0e:	8e5d                	or	a2,a2,a5
     f10:	00767513          	andi	a0,a2,7
     f14:	4401                	li	s0,0
     f16:	d4051ce3          	bnez	a0,c6e <__adddf3+0x10a>
     f1a:	a07d                	j	fc8 <__adddf3+0x464>
     f1c:	00365313          	srli	t1,a2,0x3
     f20:	01d71793          	slli	a5,a4,0x1d
     f24:	7ff00693          	li	a3,2047
     f28:	0067e333          	or	t1,a5,t1
     f2c:	00375793          	srli	a5,a4,0x3
     f30:	02d40463          	beq	s0,a3,f58 <__adddf3+0x3f4>
     f34:	07b2                	slli	a5,a5,0xc
     f36:	83b1                	srli	a5,a5,0xc
     f38:	7ff47413          	andi	s0,s0,2047
     f3c:	85a6                	mv	a1,s1
     f3e:	bb9d                	j	cb4 <__adddf3+0x150>
     f40:	02031063          	bnez	t1,f60 <__adddf3+0x3fc>
     f44:	00351313          	slli	t1,a0,0x3
     f48:	01d71793          	slli	a5,a4,0x1d
     f4c:	00335313          	srli	t1,t1,0x3
     f50:	00f36333          	or	t1,t1,a5
     f54:	00375793          	srli	a5,a4,0x3
     f58:	00f367b3          	or	a5,t1,a5
     f5c:	ee0789e3          	beqz	a5,e4e <__adddf3+0x2ea>
     f60:	4581                	li	a1,0
     f62:	7ff00413          	li	s0,2047
     f66:	000807b7          	lui	a5,0x80
     f6a:	4301                	li	t1,0
     f6c:	b3a1                	j	cb4 <__adddf3+0x150>
     f6e:	8596                	mv	a1,t0
     f70:	873e                	mv	a4,a5
     f72:	84b6                	mv	s1,a3
     f74:	0035d313          	srli	t1,a1,0x3
     f78:	841e                	mv	s0,t2
     f7a:	b75d                	j	f20 <__adddf3+0x3bc>
     f7c:	ff800737          	lui	a4,0xff800
     f80:	177d                	addi	a4,a4,-1 # ff7fffff <_eusrstack+0xdf7fefff>
     f82:	8c15                	sub	s0,s0,a3
     f84:	8f6d                	and	a4,a4,a1
     f86:	b1cd                	j	c68 <__adddf3+0x104>
     f88:	00140693          	addi	a3,s0,1
     f8c:	7fe6f313          	andi	t1,a3,2046
     f90:	0e031263          	bnez	t1,1074 <__adddf3+0x510>
     f94:	00b766b3          	or	a3,a4,a1
     f98:	1e041463          	bnez	s0,1180 <__adddf3+0x61c>
     f9c:	24068563          	beqz	a3,11e6 <__adddf3+0x682>
     fa0:	0057e6b3          	or	a3,a5,t0
     fa4:	24068b63          	beqz	a3,11fa <__adddf3+0x696>
     fa8:	00558633          	add	a2,a1,t0
     fac:	97ba                	add	a5,a5,a4
     fae:	00b635b3          	sltu	a1,a2,a1
     fb2:	00b78733          	add	a4,a5,a1
     fb6:	00800537          	lui	a0,0x800
     fba:	8d79                	and	a0,a0,a4
     fbc:	c511                	beqz	a0,fc8 <__adddf3+0x464>
     fbe:	ff8007b7          	lui	a5,0xff800
     fc2:	17fd                	addi	a5,a5,-1 # ff7fffff <_eusrstack+0xdf7fefff>
     fc4:	8f7d                	and	a4,a4,a5
     fc6:	4405                	li	s0,1
     fc8:	85b2                	mv	a1,a2
     fca:	83a2                	mv	t2,s0
     fcc:	b765                	j	f74 <__adddf3+0x410>
     fce:	40558633          	sub	a2,a1,t0
     fd2:	00c5b333          	sltu	t1,a1,a2
     fd6:	40f70533          	sub	a0,a4,a5
     fda:	40650533          	sub	a0,a0,t1
     fde:	00800337          	lui	t1,0x800
     fe2:	00657333          	and	t1,a0,t1
     fe6:	0a031c63          	bnez	t1,109e <__adddf3+0x53a>
     fea:	00a66333          	or	t1,a2,a0
     fee:	872a                	mv	a4,a0
     ff0:	c20313e3          	bnez	t1,c16 <__adddf3+0xb2>
     ff4:	4581                	li	a1,0
     ff6:	4401                	li	s0,0
     ff8:	4781                	li	a5,0
     ffa:	b96d                	j	cb4 <__adddf3+0x150>
     ffc:	7ff00513          	li	a0,2047
    1000:	12a30863          	beq	t1,a0,1130 <__adddf3+0x5cc>
    1004:	03800513          	li	a0,56
    1008:	4605                	li	a2,1
    100a:	d0754ce3          	blt	a0,t2,d22 <__adddf3+0x1be>
    100e:	00800637          	lui	a2,0x800
    1012:	8f51                	or	a4,a4,a2
    1014:	b1d5                	j	cf8 <__adddf3+0x194>
    1016:	fe038693          	addi	a3,t2,-32
    101a:	02000613          	li	a2,32
    101e:	00d7d6b3          	srl	a3,a5,a3
    1022:	00c38a63          	beq	t2,a2,1036 <__adddf3+0x4d2>
    1026:	04000613          	li	a2,64
    102a:	40760633          	sub	a2,a2,t2
    102e:	00c797b3          	sll	a5,a5,a2
    1032:	00f2e2b3          	or	t0,t0,a5
    1036:	00503633          	snez	a2,t0
    103a:	8e55                	or	a2,a2,a3
    103c:	b6c1                	j	bfc <__adddf3+0x98>
    103e:	00b766b3          	or	a3,a4,a1
    1042:	18068f63          	beqz	a3,11e0 <__adddf3+0x67c>
    1046:	fff38513          	addi	a0,t2,-1
    104a:	cd2d                	beqz	a0,10c4 <__adddf3+0x560>
    104c:	7ff00693          	li	a3,2047
    1050:	0ed38b63          	beq	t2,a3,1146 <__adddf3+0x5e2>
    1054:	03800613          	li	a2,56
    1058:	4685                	li	a3,1
    105a:	e4a64ce3          	blt	a2,a0,eb2 <__adddf3+0x34e>
    105e:	83aa                	mv	t2,a0
    1060:	b525                	j	e88 <__adddf3+0x324>
    1062:	ff8007b7          	lui	a5,0xff800
    1066:	17fd                	addi	a5,a5,-1 # ff7fffff <_eusrstack+0xdf7fefff>
    1068:	8fed                	and	a5,a5,a1
    106a:	01d79313          	slli	t1,a5,0x1d
    106e:	8c15                	sub	s0,s0,a3
    1070:	838d                	srli	a5,a5,0x3
    1072:	b5c9                	j	f34 <__adddf3+0x3d0>
    1074:	7ff00613          	li	a2,2047
    1078:	dcc68be3          	beq	a3,a2,e4e <__adddf3+0x2ea>
    107c:	00558533          	add	a0,a1,t0
    1080:	97ba                	add	a5,a5,a4
    1082:	00b535b3          	sltu	a1,a0,a1
    1086:	97ae                	add	a5,a5,a1
    1088:	8105                	srli	a0,a0,0x1
    108a:	01f79613          	slli	a2,a5,0x1f
    108e:	8e49                	or	a2,a2,a0
    1090:	891d                	andi	a0,a0,7
    1092:	0017d713          	srli	a4,a5,0x1
    1096:	8436                	mv	s0,a3
    1098:	bc051be3          	bnez	a0,c6e <__adddf3+0x10a>
    109c:	b735                	j	fc8 <__adddf3+0x464>
    109e:	40b28633          	sub	a2,t0,a1
    10a2:	8f99                	sub	a5,a5,a4
    10a4:	00c2b2b3          	sltu	t0,t0,a2
    10a8:	40578733          	sub	a4,a5,t0
    10ac:	84b6                	mv	s1,a3
    10ae:	b6a5                	j	c16 <__adddf3+0xb2>
    10b0:	e80398e3          	bnez	t2,f40 <__adddf3+0x3dc>
    10b4:	18031763          	bnez	t1,1242 <__adddf3+0x6de>
    10b8:	4581                	li	a1,0
    10ba:	7ff00413          	li	s0,2047
    10be:	000807b7          	lui	a5,0x80
    10c2:	becd                	j	cb4 <__adddf3+0x150>
    10c4:	00558633          	add	a2,a1,t0
    10c8:	97ba                	add	a5,a5,a4
    10ca:	00b635b3          	sltu	a1,a2,a1
    10ce:	00b78733          	add	a4,a5,a1
    10d2:	008007b7          	lui	a5,0x800
    10d6:	8ff9                	and	a5,a5,a4
    10d8:	4405                	li	s0,1
    10da:	d80780e3          	beqz	a5,e5a <__adddf3+0x2f6>
    10de:	4409                	li	s0,2
    10e0:	b1d1                	j	da4 <__adddf3+0x240>
    10e2:	40558633          	sub	a2,a1,t0
    10e6:	40f707b3          	sub	a5,a4,a5
    10ea:	00c5b5b3          	sltu	a1,a1,a2
    10ee:	40b78733          	sub	a4,a5,a1
    10f2:	4405                	li	s0,1
    10f4:	be09                	j	c06 <__adddf3+0xa2>
    10f6:	050e                	slli	a0,a0,0x3
    10f8:	810d                	srli	a0,a0,0x3
    10fa:	01d71313          	slli	t1,a4,0x1d
    10fe:	00656333          	or	t1,a0,t1
    1102:	00375793          	srli	a5,a4,0x3
    1106:	bd89                	j	f58 <__adddf3+0x3f4>
    1108:	fe038693          	addi	a3,t2,-32
    110c:	02000613          	li	a2,32
    1110:	00d7d6b3          	srl	a3,a5,a3
    1114:	00c38a63          	beq	t2,a2,1128 <__adddf3+0x5c4>
    1118:	04000613          	li	a2,64
    111c:	40760633          	sub	a2,a2,t2
    1120:	00c797b3          	sll	a5,a5,a2
    1124:	00f2e2b3          	or	t0,t0,a5
    1128:	005037b3          	snez	a5,t0
    112c:	8edd                	or	a3,a3,a5
    112e:	b9a9                	j	d88 <__adddf3+0x224>
    1130:	00361313          	slli	t1,a2,0x3
    1134:	01d79713          	slli	a4,a5,0x1d
    1138:	00335313          	srli	t1,t1,0x3
    113c:	00e36333          	or	t1,t1,a4
    1140:	838d                	srli	a5,a5,0x3
    1142:	84b6                	mv	s1,a3
    1144:	bd11                	j	f58 <__adddf3+0x3f4>
    1146:	00361313          	slli	t1,a2,0x3
    114a:	01d79713          	slli	a4,a5,0x1d
    114e:	00335313          	srli	t1,t1,0x3
    1152:	00e36333          	or	t1,t1,a4
    1156:	838d                	srli	a5,a5,0x3
    1158:	b501                	j	f58 <__adddf3+0x3f4>
    115a:	fe038613          	addi	a2,t2,-32
    115e:	02000413          	li	s0,32
    1162:	00c75533          	srl	a0,a4,a2
    1166:	00838963          	beq	t2,s0,1178 <__adddf3+0x614>
    116a:	04000613          	li	a2,64
    116e:	40760633          	sub	a2,a2,t2
    1172:	00c71733          	sll	a4,a4,a2
    1176:	8dd9                	or	a1,a1,a4
    1178:	00b03633          	snez	a2,a1
    117c:	8e49                	or	a2,a2,a0
    117e:	b655                	j	d22 <__adddf3+0x1be>
    1180:	d2f9                	beqz	a3,1146 <__adddf3+0x5e2>
    1182:	0057e7b3          	or	a5,a5,t0
    1186:	da078fe3          	beqz	a5,f44 <__adddf3+0x3e0>
    118a:	bbd9                	j	f60 <__adddf3+0x3fc>
    118c:	40b28633          	sub	a2,t0,a1
    1190:	8f99                	sub	a5,a5,a4
    1192:	00c2b2b3          	sltu	t0,t0,a2
    1196:	40578733          	sub	a4,a5,t0
    119a:	84b6                	mv	s1,a3
    119c:	4405                	li	s0,1
    119e:	b4a5                	j	c06 <__adddf3+0xa2>
    11a0:	e4030ae3          	beqz	t1,ff4 <__adddf3+0x490>
    11a4:	00361713          	slli	a4,a2,0x3
    11a8:	01d79313          	slli	t1,a5,0x1d
    11ac:	830d                	srli	a4,a4,0x3
    11ae:	00e36333          	or	t1,t1,a4
    11b2:	838d                	srli	a5,a5,0x3
    11b4:	84b6                	mv	s1,a3
    11b6:	bbbd                	j	f34 <__adddf3+0x3d0>
    11b8:	00351793          	slli	a5,a0,0x3
    11bc:	838d                	srli	a5,a5,0x3
    11be:	01d71313          	slli	t1,a4,0x1d
    11c2:	00f36333          	or	t1,t1,a5
    11c6:	00375793          	srli	a5,a4,0x3
    11ca:	b379                	j	f58 <__adddf3+0x3f4>
    11cc:	00351793          	slli	a5,a0,0x3
    11d0:	838d                	srli	a5,a5,0x3
    11d2:	01d71313          	slli	t1,a4,0x1d
    11d6:	00f36333          	or	t1,t1,a5
    11da:	00375793          	srli	a5,a4,0x3
    11de:	bb99                	j	f34 <__adddf3+0x3d0>
    11e0:	8596                	mv	a1,t0
    11e2:	873e                	mv	a4,a5
    11e4:	bb41                	j	f74 <__adddf3+0x410>
    11e6:	00361313          	slli	t1,a2,0x3
    11ea:	01d79713          	slli	a4,a5,0x1d
    11ee:	00335313          	srli	t1,t1,0x3
    11f2:	00e36333          	or	t1,t1,a4
    11f6:	838d                	srli	a5,a5,0x3
    11f8:	bb35                	j	f34 <__adddf3+0x3d0>
    11fa:	00351313          	slli	t1,a0,0x3
    11fe:	01d71793          	slli	a5,a4,0x1d
    1202:	00335313          	srli	t1,t1,0x3
    1206:	00f36333          	or	t1,t1,a5
    120a:	00375793          	srli	a5,a4,0x3
    120e:	b31d                	j	f34 <__adddf3+0x3d0>
    1210:	fe038613          	addi	a2,t2,-32
    1214:	02000693          	li	a3,32
    1218:	00c75633          	srl	a2,a4,a2
    121c:	00d38963          	beq	t2,a3,122e <__adddf3+0x6ca>
    1220:	04000693          	li	a3,64
    1224:	407686b3          	sub	a3,a3,t2
    1228:	00d71733          	sll	a4,a4,a3
    122c:	8dd9                	or	a1,a1,a4
    122e:	00b036b3          	snez	a3,a1
    1232:	8ed1                	or	a3,a3,a2
    1234:	b9bd                	j	eb2 <__adddf3+0x34e>
    1236:	00766333          	or	t1,a2,t2
    123a:	871e                	mv	a4,t2
    123c:	d80316e3          	bnez	t1,fc8 <__adddf3+0x464>
    1240:	bb55                	j	ff4 <__adddf3+0x490>
    1242:	00361713          	slli	a4,a2,0x3
    1246:	01d79313          	slli	t1,a5,0x1d
    124a:	830d                	srli	a4,a4,0x3
    124c:	00e36333          	or	t1,t1,a4
    1250:	838d                	srli	a5,a5,0x3
    1252:	84b6                	mv	s1,a3
    1254:	b311                	j	f58 <__adddf3+0x3f4>
    1256:	02000793          	li	a5,32
    125a:	8f95                	sub	a5,a5,a3
    125c:	4501                	li	a0,0
    125e:	baed                	j	c58 <__adddf3+0xf4>

00001260 <__divdf3>:
    1260:	fc810113          	addi	sp,sp,-56
    1264:	0145d313          	srli	t1,a1,0x14
    1268:	d822                	sw	s0,48(sp)
    126a:	d626                	sw	s1,44(sp)
    126c:	87aa                	mv	a5,a0
    126e:	00c59713          	slli	a4,a1,0xc
    1272:	da06                	sw	ra,52(sp)
    1274:	7ff37513          	andi	a0,t1,2047
    1278:	8436                	mv	s0,a3
    127a:	01f5d493          	srli	s1,a1,0x1f
    127e:	00c75693          	srli	a3,a4,0xc
    1282:	12050c63          	beqz	a0,13ba <__divdf3+0x15a>
    1286:	7ff00713          	li	a4,2047
    128a:	16e50c63          	beq	a0,a4,1402 <__divdf3+0x1a2>
    128e:	01d7d713          	srli	a4,a5,0x1d
    1292:	068e                	slli	a3,a3,0x3
    1294:	8f55                	or	a4,a4,a3
    1296:	00379313          	slli	t1,a5,0x3
    129a:	008006b7          	lui	a3,0x800
    129e:	c0150793          	addi	a5,a0,-1023 # 7ffc01 <_data_lma+0x7fc289>
    12a2:	c03e                	sw	a5,0(sp)
    12a4:	8f55                	or	a4,a4,a3
    12a6:	4781                	li	a5,0
    12a8:	4581                	li	a1,0
    12aa:	01445693          	srli	a3,s0,0x14
    12ae:	00c41513          	slli	a0,s0,0xc
    12b2:	7ff6f693          	andi	a3,a3,2047
    12b6:	00c55393          	srli	t2,a0,0xc
    12ba:	807d                	srli	s0,s0,0x1f
    12bc:	c2dd                	beqz	a3,1362 <__divdf3+0x102>
    12be:	7ff00513          	li	a0,2047
    12c2:	08a68363          	beq	a3,a0,1348 <__divdf3+0xe8>
    12c6:	00339513          	slli	a0,t2,0x3
    12ca:	01d65293          	srli	t0,a2,0x1d
    12ce:	00a2e2b3          	or	t0,t0,a0
    12d2:	c0168513          	addi	a0,a3,-1023 # 7ffc01 <_data_lma+0x7fc289>
    12d6:	008006b7          	lui	a3,0x800
    12da:	00d2e3b3          	or	t2,t0,a3
    12de:	00361693          	slli	a3,a2,0x3
    12e2:	4602                	lw	a2,0(sp)
    12e4:	8e09                	sub	a2,a2,a0
    12e6:	c032                	sw	a2,0(sp)
    12e8:	4501                	li	a0,0
    12ea:	463d                	li	a2,15
    12ec:	0084c2b3          	xor	t0,s1,s0
    12f0:	1af66d63          	bltu	a2,a5,14aa <__divdf3+0x24a>
    12f4:	00002617          	auipc	a2,0x2
    12f8:	54460613          	addi	a2,a2,1348 # 3838 <__retarget_lock_release_recursive+0x48>
    12fc:	078a                	slli	a5,a5,0x2
    12fe:	97b2                	add	a5,a5,a2
    1300:	439c                	lw	a5,0(a5)
    1302:	97b2                	add	a5,a5,a2
    1304:	8782                	jr	a5
    1306:	8f1d                	sub	a4,a4,a5
    1308:	03800613          	li	a2,56
    130c:	4ce65f63          	bge	a2,a4,17ea <__divdf3+0x58a>
    1310:	4781                	li	a5,0
    1312:	4601                	li	a2,0
    1314:	4701                	li	a4,0
    1316:	50d2                	lw	ra,52(sp)
    1318:	5442                	lw	s0,48(sp)
    131a:	07d2                	slli	a5,a5,0x14
    131c:	8fd1                	or	a5,a5,a2
    131e:	01f29693          	slli	a3,t0,0x1f
    1322:	8fd5                	or	a5,a5,a3
    1324:	54b2                	lw	s1,44(sp)
    1326:	853a                	mv	a0,a4
    1328:	85be                	mv	a1,a5
    132a:	03810113          	addi	sp,sp,56
    132e:	8082                	ret
    1330:	7ff00793          	li	a5,2047
    1334:	4601                	li	a2,0
    1336:	4701                	li	a4,0
    1338:	bff9                	j	1316 <__divdf3+0xb6>
    133a:	4281                	li	t0,0
    133c:	7ff00793          	li	a5,2047
    1340:	00080637          	lui	a2,0x80
    1344:	4701                	li	a4,0
    1346:	bfc1                	j	1316 <__divdf3+0xb6>
    1348:	4502                	lw	a0,0(sp)
    134a:	00c3e6b3          	or	a3,t2,a2
    134e:	80150513          	addi	a0,a0,-2047
    1352:	c02a                	sw	a0,0(sp)
    1354:	14069163          	bnez	a3,1496 <__divdf3+0x236>
    1358:	0027e793          	ori	a5,a5,2
    135c:	4381                	li	t2,0
    135e:	4509                	li	a0,2
    1360:	b769                	j	12ea <__divdf3+0x8a>
    1362:	00c3e6b3          	or	a3,t2,a2
    1366:	12068363          	beqz	a3,148c <__divdf3+0x22c>
    136a:	40038e63          	beqz	t2,1786 <__divdf3+0x526>
    136e:	851e                	mv	a0,t2
    1370:	cc32                	sw	a2,24(sp)
    1372:	ca3e                	sw	a5,20(sp)
    1374:	c82e                	sw	a1,16(sp)
    1376:	c63a                	sw	a4,12(sp)
    1378:	c41a                	sw	t1,8(sp)
    137a:	c21e                	sw	t2,4(sp)
    137c:	1e8020ef          	jal	ra,3564 <__clzsi2>
    1380:	ff550793          	addi	a5,a0,-11
    1384:	86be                	mv	a3,a5
    1386:	4392                	lw	t2,4(sp)
    1388:	4322                	lw	t1,8(sp)
    138a:	4732                	lw	a4,12(sp)
    138c:	45c2                	lw	a1,16(sp)
    138e:	47d2                	lw	a5,20(sp)
    1390:	4662                	lw	a2,24(sp)
    1392:	42f5                	li	t0,29
    1394:	40d282b3          	sub	t0,t0,a3
    1398:	ff850693          	addi	a3,a0,-8
    139c:	00d393b3          	sll	t2,t2,a3
    13a0:	005652b3          	srl	t0,a2,t0
    13a4:	0072e3b3          	or	t2,t0,t2
    13a8:	00d616b3          	sll	a3,a2,a3
    13ac:	4602                	lw	a2,0(sp)
    13ae:	9532                	add	a0,a0,a2
    13b0:	3f350613          	addi	a2,a0,1011
    13b4:	c032                	sw	a2,0(sp)
    13b6:	4501                	li	a0,0
    13b8:	bf0d                	j	12ea <__divdf3+0x8a>
    13ba:	00f6e733          	or	a4,a3,a5
    13be:	c36d                	beqz	a4,14a0 <__divdf3+0x240>
    13c0:	c432                	sw	a2,8(sp)
    13c2:	38068d63          	beqz	a3,175c <__divdf3+0x4fc>
    13c6:	8536                	mv	a0,a3
    13c8:	c23e                	sw	a5,4(sp)
    13ca:	c036                	sw	a3,0(sp)
    13cc:	198020ef          	jal	ra,3564 <__clzsi2>
    13d0:	4682                	lw	a3,0(sp)
    13d2:	4792                	lw	a5,4(sp)
    13d4:	4622                	lw	a2,8(sp)
    13d6:	85aa                	mv	a1,a0
    13d8:	ff550293          	addi	t0,a0,-11
    13dc:	4775                	li	a4,29
    13de:	ff858313          	addi	t1,a1,-8
    13e2:	40570733          	sub	a4,a4,t0
    13e6:	006696b3          	sll	a3,a3,t1
    13ea:	00e7d733          	srl	a4,a5,a4
    13ee:	8f55                	or	a4,a4,a3
    13f0:	00679333          	sll	t1,a5,t1
    13f4:	c0d00793          	li	a5,-1011
    13f8:	8f8d                	sub	a5,a5,a1
    13fa:	c03e                	sw	a5,0(sp)
    13fc:	4581                	li	a1,0
    13fe:	4781                	li	a5,0
    1400:	b56d                	j	12aa <__divdf3+0x4a>
    1402:	00f6e733          	or	a4,a3,a5
    1406:	eb3d                	bnez	a4,147c <__divdf3+0x21c>
    1408:	7ff00693          	li	a3,2047
    140c:	4301                	li	t1,0
    140e:	47a1                	li	a5,8
    1410:	c036                	sw	a3,0(sp)
    1412:	4589                	li	a1,2
    1414:	bd59                	j	12aa <__divdf3+0x4a>
    1416:	85aa                	mv	a1,a0
    1418:	4789                	li	a5,2
    141a:	48f58563          	beq	a1,a5,18a4 <__divdf3+0x644>
    141e:	478d                	li	a5,3
    1420:	f0f58de3          	beq	a1,a5,133a <__divdf3+0xda>
    1424:	4785                	li	a5,1
    1426:	82a2                	mv	t0,s0
    1428:	eef584e3          	beq	a1,a5,1310 <__divdf3+0xb0>
    142c:	4782                	lw	a5,0(sp)
    142e:	3ff78793          	addi	a5,a5,1023 # 8003ff <_data_lma+0x7fca87>
    1432:	28f05c63          	blez	a5,16ca <__divdf3+0x46a>
    1436:	0076f713          	andi	a4,a3,7
    143a:	44071b63          	bnez	a4,1890 <__divdf3+0x630>
    143e:	01000737          	lui	a4,0x1000
    1442:	00e3f733          	and	a4,t2,a4
    1446:	cb09                	beqz	a4,1458 <__divdf3+0x1f8>
    1448:	ff0007b7          	lui	a5,0xff000
    144c:	17fd                	addi	a5,a5,-1 # feffffff <_eusrstack+0xdeffefff>
    144e:	00f3f3b3          	and	t2,t2,a5
    1452:	4782                	lw	a5,0(sp)
    1454:	40078793          	addi	a5,a5,1024
    1458:	7fe00713          	li	a4,2046
    145c:	ecf74ae3          	blt	a4,a5,1330 <__divdf3+0xd0>
    1460:	828d                	srli	a3,a3,0x3
    1462:	01d39713          	slli	a4,t2,0x1d
    1466:	00939613          	slli	a2,t2,0x9
    146a:	8f55                	or	a4,a4,a3
    146c:	8231                	srli	a2,a2,0xc
    146e:	7ff7f793          	andi	a5,a5,2047
    1472:	b555                	j	1316 <__divdf3+0xb6>
    1474:	8426                	mv	s0,s1
    1476:	83ba                	mv	t2,a4
    1478:	869a                	mv	a3,t1
    147a:	bf79                	j	1418 <__divdf3+0x1b8>
    147c:	8736                	mv	a4,a3
    147e:	7ff00693          	li	a3,2047
    1482:	833e                	mv	t1,a5
    1484:	c036                	sw	a3,0(sp)
    1486:	47b1                	li	a5,12
    1488:	458d                	li	a1,3
    148a:	b505                	j	12aa <__divdf3+0x4a>
    148c:	0017e793          	ori	a5,a5,1
    1490:	4381                	li	t2,0
    1492:	4505                	li	a0,1
    1494:	bd99                	j	12ea <__divdf3+0x8a>
    1496:	0037e793          	ori	a5,a5,3
    149a:	86b2                	mv	a3,a2
    149c:	450d                	li	a0,3
    149e:	b5b1                	j	12ea <__divdf3+0x8a>
    14a0:	4301                	li	t1,0
    14a2:	4791                	li	a5,4
    14a4:	c002                	sw	zero,0(sp)
    14a6:	4585                	li	a1,1
    14a8:	b509                	j	12aa <__divdf3+0x4a>
    14aa:	2ae3e063          	bltu	t2,a4,174a <__divdf3+0x4ea>
    14ae:	28770c63          	beq	a4,t2,1746 <__divdf3+0x4e6>
    14b2:	4782                	lw	a5,0(sp)
    14b4:	841a                	mv	s0,t1
    14b6:	84ba                	mv	s1,a4
    14b8:	17fd                	addi	a5,a5,-1
    14ba:	c03e                	sw	a5,0(sp)
    14bc:	4301                	li	t1,0
    14be:	00839793          	slli	a5,t2,0x8
    14c2:	0107d713          	srli	a4,a5,0x10
    14c6:	863a                	mv	a2,a4
    14c8:	0186d713          	srli	a4,a3,0x18
    14cc:	8fd9                	or	a5,a5,a4
    14ce:	85b2                	mv	a1,a2
    14d0:	00869713          	slli	a4,a3,0x8
    14d4:	8526                	mv	a0,s1
    14d6:	d016                	sw	t0,32(sp)
    14d8:	ce1a                	sw	t1,28(sp)
    14da:	c43e                	sw	a5,8(sp)
    14dc:	c232                	sw	a2,4(sp)
    14de:	c83a                	sw	a4,16(sp)
    14e0:	be5fe0ef          	jal	ra,c4 <__hidden___udivsi3>
    14e4:	8438                	lhu	a4,8(sp)
    14e6:	4592                	lw	a1,4(sp)
    14e8:	cc2a                	sw	a0,24(sp)
    14ea:	c63a                	sw	a4,12(sp)
    14ec:	02a70733          	mul	a4,a4,a0
    14f0:	8526                	mv	a0,s1
    14f2:	ca3a                	sw	a4,20(sp)
    14f4:	bfdfe0ef          	jal	ra,f0 <__umodsi3>
    14f8:	4752                	lw	a4,20(sp)
    14fa:	0542                	slli	a0,a0,0x10
    14fc:	01045693          	srli	a3,s0,0x10
    1500:	8ec9                	or	a3,a3,a0
    1502:	47e2                	lw	a5,24(sp)
    1504:	4372                	lw	t1,28(sp)
    1506:	5282                	lw	t0,32(sp)
    1508:	00e6f963          	bgeu	a3,a4,151a <__divdf3+0x2ba>
    150c:	45a2                	lw	a1,8(sp)
    150e:	fff78613          	addi	a2,a5,-1
    1512:	96ae                	add	a3,a3,a1
    1514:	2cb6f663          	bgeu	a3,a1,17e0 <__divdf3+0x580>
    1518:	87b2                	mv	a5,a2
    151a:	4592                	lw	a1,4(sp)
    151c:	8e99                	sub	a3,a3,a4
    151e:	8536                	mv	a0,a3
    1520:	d216                	sw	t0,36(sp)
    1522:	ce1a                	sw	t1,28(sp)
    1524:	d03e                	sw	a5,32(sp)
    1526:	cc36                	sw	a3,24(sp)
    1528:	b9dfe0ef          	jal	ra,c4 <__hidden___udivsi3>
    152c:	47b2                	lw	a5,12(sp)
    152e:	46e2                	lw	a3,24(sp)
    1530:	4592                	lw	a1,4(sp)
    1532:	02a784b3          	mul	s1,a5,a0
    1536:	ca2a                	sw	a0,20(sp)
    1538:	8536                	mv	a0,a3
    153a:	bb7fe0ef          	jal	ra,f0 <__umodsi3>
    153e:	0442                	slli	s0,s0,0x10
    1540:	0542                	slli	a0,a0,0x10
    1542:	8041                	srli	s0,s0,0x10
    1544:	8c49                	or	s0,s0,a0
    1546:	43d2                	lw	t2,20(sp)
    1548:	4372                	lw	t1,28(sp)
    154a:	5782                	lw	a5,32(sp)
    154c:	5292                	lw	t0,36(sp)
    154e:	00947963          	bgeu	s0,s1,1560 <__divdf3+0x300>
    1552:	4722                	lw	a4,8(sp)
    1554:	fff38693          	addi	a3,t2,-1
    1558:	943a                	add	s0,s0,a4
    155a:	26e47e63          	bgeu	s0,a4,17d6 <__divdf3+0x576>
    155e:	83b6                	mv	t2,a3
    1560:	4642                	lw	a2,16(sp)
    1562:	07c2                	slli	a5,a5,0x10
    1564:	65c1                	lui	a1,0x10
    1566:	01065713          	srli	a4,a2,0x10
    156a:	ca3a                	sw	a4,20(sp)
    156c:	8c05                	sub	s0,s0,s1
    156e:	44d2                	lw	s1,20(sp)
    1570:	0077e3b3          	or	t2,a5,t2
    1574:	fff58793          	addi	a5,a1,-1 # ffff <_data_lma+0xc687>
    1578:	8e7d                	and	a2,a2,a5
    157a:	0103d693          	srli	a3,t2,0x10
    157e:	00f3f733          	and	a4,t2,a5
    1582:	02e607b3          	mul	a5,a2,a4
    1586:	cc32                	sw	a2,24(sp)
    1588:	02e48733          	mul	a4,s1,a4
    158c:	0107d513          	srli	a0,a5,0x10
    1590:	02c68633          	mul	a2,a3,a2
    1594:	9732                	add	a4,a4,a2
    1596:	972a                	add	a4,a4,a0
    1598:	029686b3          	mul	a3,a3,s1
    159c:	00c77363          	bgeu	a4,a2,15a2 <__divdf3+0x342>
    15a0:	96ae                	add	a3,a3,a1
    15a2:	64c1                	lui	s1,0x10
    15a4:	14fd                	addi	s1,s1,-1 # ffff <_data_lma+0xc687>
    15a6:	01075613          	srli	a2,a4,0x10
    15aa:	8f65                	and	a4,a4,s1
    15ac:	0742                	slli	a4,a4,0x10
    15ae:	8cfd                	and	s1,s1,a5
    15b0:	9636                	add	a2,a2,a3
    15b2:	94ba                	add	s1,s1,a4
    15b4:	16c46663          	bltu	s0,a2,1720 <__divdf3+0x4c0>
    15b8:	16c40263          	beq	s0,a2,171c <__divdf3+0x4bc>
    15bc:	8c11                	sub	s0,s0,a2
    15be:	409304b3          	sub	s1,t1,s1
    15c2:	4622                	lw	a2,8(sp)
    15c4:	00933333          	sltu	t1,t1,s1
    15c8:	40640433          	sub	s0,s0,t1
    15cc:	2a860363          	beq	a2,s0,1872 <__divdf3+0x612>
    15d0:	4592                	lw	a1,4(sp)
    15d2:	8522                	mv	a0,s0
    15d4:	d416                	sw	t0,40(sp)
    15d6:	d21e                	sw	t2,36(sp)
    15d8:	aedfe0ef          	jal	ra,c4 <__hidden___udivsi3>
    15dc:	47b2                	lw	a5,12(sp)
    15de:	4592                	lw	a1,4(sp)
    15e0:	d02a                	sw	a0,32(sp)
    15e2:	02a787b3          	mul	a5,a5,a0
    15e6:	8522                	mv	a0,s0
    15e8:	0104d413          	srli	s0,s1,0x10
    15ec:	ce3e                	sw	a5,28(sp)
    15ee:	b03fe0ef          	jal	ra,f0 <__umodsi3>
    15f2:	47f2                	lw	a5,28(sp)
    15f4:	0542                	slli	a0,a0,0x10
    15f6:	8c49                	or	s0,s0,a0
    15f8:	5682                	lw	a3,32(sp)
    15fa:	5392                	lw	t2,36(sp)
    15fc:	52a2                	lw	t0,40(sp)
    15fe:	00f47c63          	bgeu	s0,a5,1616 <__divdf3+0x3b6>
    1602:	4622                	lw	a2,8(sp)
    1604:	fff68713          	addi	a4,a3,-1 # 7fffff <_data_lma+0x7fc687>
    1608:	9432                	add	s0,s0,a2
    160a:	28c46b63          	bltu	s0,a2,18a0 <__divdf3+0x640>
    160e:	28f47963          	bgeu	s0,a5,18a0 <__divdf3+0x640>
    1612:	16f9                	addi	a3,a3,-2
    1614:	9432                	add	s0,s0,a2
    1616:	4592                	lw	a1,4(sp)
    1618:	8c1d                	sub	s0,s0,a5
    161a:	8522                	mv	a0,s0
    161c:	d416                	sw	t0,40(sp)
    161e:	d236                	sw	a3,36(sp)
    1620:	d01e                	sw	t2,32(sp)
    1622:	aa3fe0ef          	jal	ra,c4 <__hidden___udivsi3>
    1626:	47b2                	lw	a5,12(sp)
    1628:	4592                	lw	a1,4(sp)
    162a:	ce2a                	sw	a0,28(sp)
    162c:	02a78733          	mul	a4,a5,a0
    1630:	8522                	mv	a0,s0
    1632:	04c2                	slli	s1,s1,0x10
    1634:	80c1                	srli	s1,s1,0x10
    1636:	c63a                	sw	a4,12(sp)
    1638:	ab9fe0ef          	jal	ra,f0 <__umodsi3>
    163c:	4732                	lw	a4,12(sp)
    163e:	0542                	slli	a0,a0,0x10
    1640:	8cc9                	or	s1,s1,a0
    1642:	4672                	lw	a2,28(sp)
    1644:	5382                	lw	t2,32(sp)
    1646:	5692                	lw	a3,36(sp)
    1648:	52a2                	lw	t0,40(sp)
    164a:	00e4fc63          	bgeu	s1,a4,1662 <__divdf3+0x402>
    164e:	45a2                	lw	a1,8(sp)
    1650:	fff60793          	addi	a5,a2,-1 # 7ffff <_data_lma+0x7c687>
    1654:	94ae                	add	s1,s1,a1
    1656:	24b4e363          	bltu	s1,a1,189c <__divdf3+0x63c>
    165a:	24e4f163          	bgeu	s1,a4,189c <__divdf3+0x63c>
    165e:	1679                	addi	a2,a2,-2
    1660:	94ae                	add	s1,s1,a1
    1662:	06c2                	slli	a3,a3,0x10
    1664:	4562                	lw	a0,24(sp)
    1666:	4452                	lw	s0,20(sp)
    1668:	8ed1                	or	a3,a3,a2
    166a:	01069793          	slli	a5,a3,0x10
    166e:	0106d613          	srli	a2,a3,0x10
    1672:	83c1                	srli	a5,a5,0x10
    1674:	02a785b3          	mul	a1,a5,a0
    1678:	8c99                	sub	s1,s1,a4
    167a:	02f407b3          	mul	a5,s0,a5
    167e:	02a60733          	mul	a4,a2,a0
    1682:	0105d513          	srli	a0,a1,0x10
    1686:	97ba                	add	a5,a5,a4
    1688:	97aa                	add	a5,a5,a0
    168a:	02c40633          	mul	a2,s0,a2
    168e:	00e7f463          	bgeu	a5,a4,1696 <__divdf3+0x436>
    1692:	6741                	lui	a4,0x10
    1694:	963a                	add	a2,a2,a4
    1696:	6741                	lui	a4,0x10
    1698:	177d                	addi	a4,a4,-1 # ffff <_data_lma+0xc687>
    169a:	0107d513          	srli	a0,a5,0x10
    169e:	8ff9                	and	a5,a5,a4
    16a0:	07c2                	slli	a5,a5,0x10
    16a2:	8f6d                	and	a4,a4,a1
    16a4:	9532                	add	a0,a0,a2
    16a6:	973e                	add	a4,a4,a5
    16a8:	10a4fd63          	bgeu	s1,a0,17c2 <__divdf3+0x562>
    16ac:	45a2                	lw	a1,8(sp)
    16ae:	fff68793          	addi	a5,a3,-1
    16b2:	94ae                	add	s1,s1,a1
    16b4:	8626                	mv	a2,s1
    16b6:	18b4e963          	bltu	s1,a1,1848 <__divdf3+0x5e8>
    16ba:	1ea4eb63          	bltu	s1,a0,18b0 <__divdf3+0x650>
    16be:	20a48463          	beq	s1,a0,18c6 <__divdf3+0x666>
    16c2:	86be                	mv	a3,a5
    16c4:	0016e693          	ori	a3,a3,1
    16c8:	b395                	j	142c <__divdf3+0x1cc>
    16ca:	4705                	li	a4,1
    16cc:	c2079de3          	bnez	a5,1306 <__divdf3+0xa6>
    16d0:	4782                	lw	a5,0(sp)
    16d2:	00e3d5b3          	srl	a1,t2,a4
    16d6:	41e78613          	addi	a2,a5,1054
    16da:	00c697b3          	sll	a5,a3,a2
    16de:	00f037b3          	snez	a5,a5
    16e2:	00c39633          	sll	a2,t2,a2
    16e6:	8fd1                	or	a5,a5,a2
    16e8:	00e6d6b3          	srl	a3,a3,a4
    16ec:	8edd                	or	a3,a3,a5
    16ee:	0076f793          	andi	a5,a3,7
    16f2:	cf81                	beqz	a5,170a <__divdf3+0x4aa>
    16f4:	00f6f793          	andi	a5,a3,15
    16f8:	4711                	li	a4,4
    16fa:	00e78863          	beq	a5,a4,170a <__divdf3+0x4aa>
    16fe:	00468793          	addi	a5,a3,4
    1702:	00d7b6b3          	sltu	a3,a5,a3
    1706:	95b6                	add	a1,a1,a3
    1708:	86be                	mv	a3,a5
    170a:	00800537          	lui	a0,0x800
    170e:	8d6d                	and	a0,a0,a1
    1710:	4785                	li	a5,1
    1712:	4601                	li	a2,0
    1714:	4701                	li	a4,0
    1716:	c00510e3          	bnez	a0,1316 <__divdf3+0xb6>
    171a:	aa31                	j	1836 <__divdf3+0x5d6>
    171c:	ea9370e3          	bgeu	t1,s1,15bc <__divdf3+0x35c>
    1720:	47c2                	lw	a5,16(sp)
    1722:	45a2                	lw	a1,8(sp)
    1724:	979a                	add	a5,a5,t1
    1726:	0067b733          	sltu	a4,a5,t1
    172a:	00b706b3          	add	a3,a4,a1
    172e:	9436                	add	s0,s0,a3
    1730:	833e                	mv	t1,a5
    1732:	fff38693          	addi	a3,t2,-1
    1736:	0885fb63          	bgeu	a1,s0,17cc <__divdf3+0x56c>
    173a:	12c46263          	bltu	s0,a2,185e <__divdf3+0x5fe>
    173e:	10860e63          	beq	a2,s0,185a <__divdf3+0x5fa>
    1742:	83b6                	mv	t2,a3
    1744:	bda5                	j	15bc <__divdf3+0x35c>
    1746:	d6d366e3          	bltu	t1,a3,14b2 <__divdf3+0x252>
    174a:	00135793          	srli	a5,t1,0x1
    174e:	01f71413          	slli	s0,a4,0x1f
    1752:	00175493          	srli	s1,a4,0x1
    1756:	8c5d                	or	s0,s0,a5
    1758:	037e                	slli	t1,t1,0x1f
    175a:	b395                	j	14be <__divdf3+0x25e>
    175c:	853e                	mv	a0,a5
    175e:	c236                	sw	a3,4(sp)
    1760:	c03e                	sw	a5,0(sp)
    1762:	603010ef          	jal	ra,3564 <__clzsi2>
    1766:	01550293          	addi	t0,a0,21 # 800015 <_data_lma+0x7fc69d>
    176a:	4771                	li	a4,28
    176c:	4782                	lw	a5,0(sp)
    176e:	4692                	lw	a3,4(sp)
    1770:	4622                	lw	a2,8(sp)
    1772:	02050593          	addi	a1,a0,32
    1776:	c65753e3          	bge	a4,t0,13dc <__divdf3+0x17c>
    177a:	ff850713          	addi	a4,a0,-8
    177e:	00e79733          	sll	a4,a5,a4
    1782:	4301                	li	t1,0
    1784:	b985                	j	13f4 <__divdf3+0x194>
    1786:	8532                	mv	a0,a2
    1788:	cc3e                	sw	a5,24(sp)
    178a:	ca1e                	sw	t2,20(sp)
    178c:	c82e                	sw	a1,16(sp)
    178e:	c63a                	sw	a4,12(sp)
    1790:	c41a                	sw	t1,8(sp)
    1792:	c232                	sw	a2,4(sp)
    1794:	5d1010ef          	jal	ra,3564 <__clzsi2>
    1798:	ce2a                	sw	a0,28(sp)
    179a:	01550693          	addi	a3,a0,21
    179e:	42f1                	li	t0,28
    17a0:	4612                	lw	a2,4(sp)
    17a2:	4322                	lw	t1,8(sp)
    17a4:	4732                	lw	a4,12(sp)
    17a6:	45c2                	lw	a1,16(sp)
    17a8:	43d2                	lw	t2,20(sp)
    17aa:	47e2                	lw	a5,24(sp)
    17ac:	02050513          	addi	a0,a0,32
    17b0:	bed2d1e3          	bge	t0,a3,1392 <__divdf3+0x132>
    17b4:	46f2                	lw	a3,28(sp)
    17b6:	ff868293          	addi	t0,a3,-8
    17ba:	005613b3          	sll	t2,a2,t0
    17be:	4681                	li	a3,0
    17c0:	b6f5                	j	13ac <__divdf3+0x14c>
    17c2:	f0a491e3          	bne	s1,a0,16c4 <__divdf3+0x464>
    17c6:	c60703e3          	beqz	a4,142c <__divdf3+0x1cc>
    17ca:	b5cd                	j	16ac <__divdf3+0x44c>
    17cc:	f6859be3          	bne	a1,s0,1742 <__divdf3+0x4e2>
    17d0:	d72d                	beqz	a4,173a <__divdf3+0x4da>
    17d2:	83b6                	mv	t2,a3
    17d4:	b3e5                	j	15bc <__divdf3+0x35c>
    17d6:	d89474e3          	bgeu	s0,s1,155e <__divdf3+0x2fe>
    17da:	13f9                	addi	t2,t2,-2
    17dc:	943a                	add	s0,s0,a4
    17de:	b349                	j	1560 <__divdf3+0x300>
    17e0:	d2e6fce3          	bgeu	a3,a4,1518 <__divdf3+0x2b8>
    17e4:	17f9                	addi	a5,a5,-2
    17e6:	96ae                	add	a3,a3,a1
    17e8:	bb0d                	j	151a <__divdf3+0x2ba>
    17ea:	467d                	li	a2,31
    17ec:	eee652e3          	bge	a2,a4,16d0 <__divdf3+0x470>
    17f0:	5605                	li	a2,-31
    17f2:	40f607b3          	sub	a5,a2,a5
    17f6:	02000613          	li	a2,32
    17fa:	00f3d7b3          	srl	a5,t2,a5
    17fe:	00c70863          	beq	a4,a2,180e <__divdf3+0x5ae>
    1802:	4702                	lw	a4,0(sp)
    1804:	43e70713          	addi	a4,a4,1086
    1808:	00e39733          	sll	a4,t2,a4
    180c:	8ed9                	or	a3,a3,a4
    180e:	00d036b3          	snez	a3,a3
    1812:	8edd                	or	a3,a3,a5
    1814:	0076f713          	andi	a4,a3,7
    1818:	4601                	li	a2,0
    181a:	c31d                	beqz	a4,1840 <__divdf3+0x5e0>
    181c:	00f6f793          	andi	a5,a3,15
    1820:	4711                	li	a4,4
    1822:	4581                	li	a1,0
    1824:	00e78963          	beq	a5,a4,1836 <__divdf3+0x5d6>
    1828:	00468793          	addi	a5,a3,4
    182c:	00d7b733          	sltu	a4,a5,a3
    1830:	00e035b3          	snez	a1,a4
    1834:	86be                	mv	a3,a5
    1836:	00959613          	slli	a2,a1,0x9
    183a:	01d59713          	slli	a4,a1,0x1d
    183e:	8231                	srli	a2,a2,0xc
    1840:	828d                	srli	a3,a3,0x3
    1842:	8f55                	or	a4,a4,a3
    1844:	4781                	li	a5,0
    1846:	bcc1                	j	1316 <__divdf3+0xb6>
    1848:	86be                	mv	a3,a5
    184a:	e6a61de3          	bne	a2,a0,16c4 <__divdf3+0x464>
    184e:	47c2                	lw	a5,16(sp)
    1850:	bcf70ee3          	beq	a4,a5,142c <__divdf3+0x1cc>
    1854:	0016e693          	ori	a3,a3,1
    1858:	bed1                	j	142c <__divdf3+0x1cc>
    185a:	ee97f4e3          	bgeu	a5,s1,1742 <__divdf3+0x4e2>
    185e:	4742                	lw	a4,16(sp)
    1860:	46a2                	lw	a3,8(sp)
    1862:	13f9                	addi	t2,t2,-2
    1864:	97ba                	add	a5,a5,a4
    1866:	00e7b733          	sltu	a4,a5,a4
    186a:	9736                	add	a4,a4,a3
    186c:	833e                	mv	t1,a5
    186e:	943a                	add	s0,s0,a4
    1870:	b3b1                	j	15bc <__divdf3+0x35c>
    1872:	4602                	lw	a2,0(sp)
    1874:	c0200713          	li	a4,-1022
    1878:	56fd                	li	a3,-1
    187a:	3ff60793          	addi	a5,a2,1023
    187e:	e4e646e3          	blt	a2,a4,16ca <__divdf3+0x46a>
    1882:	00468713          	addi	a4,a3,4
    1886:	00d736b3          	sltu	a3,a4,a3
    188a:	93b6                	add	t2,t2,a3
    188c:	86ba                	mv	a3,a4
    188e:	be45                	j	143e <__divdf3+0x1de>
    1890:	00f6f713          	andi	a4,a3,15
    1894:	4611                	li	a2,4
    1896:	bac704e3          	beq	a4,a2,143e <__divdf3+0x1de>
    189a:	b7e5                	j	1882 <__divdf3+0x622>
    189c:	863e                	mv	a2,a5
    189e:	b3d1                	j	1662 <__divdf3+0x402>
    18a0:	86ba                	mv	a3,a4
    18a2:	bb95                	j	1616 <__divdf3+0x3b6>
    18a4:	82a2                	mv	t0,s0
    18a6:	7ff00793          	li	a5,2047
    18aa:	4601                	li	a2,0
    18ac:	4701                	li	a4,0
    18ae:	b4a5                	j	1316 <__divdf3+0xb6>
    18b0:	4642                	lw	a2,16(sp)
    18b2:	45a2                	lw	a1,8(sp)
    18b4:	16f9                	addi	a3,a3,-2
    18b6:	00161793          	slli	a5,a2,0x1
    18ba:	00c7b633          	sltu	a2,a5,a2
    18be:	962e                	add	a2,a2,a1
    18c0:	9626                	add	a2,a2,s1
    18c2:	c83e                	sw	a5,16(sp)
    18c4:	b759                	j	184a <__divdf3+0x5ea>
    18c6:	4642                	lw	a2,16(sp)
    18c8:	fee664e3          	bltu	a2,a4,18b0 <__divdf3+0x650>
    18cc:	86be                	mv	a3,a5
    18ce:	b741                	j	184e <__divdf3+0x5ee>

000018d0 <__gedf2>:
    18d0:	0145d313          	srli	t1,a1,0x14
    18d4:	001007b7          	lui	a5,0x100
    18d8:	17fd                	addi	a5,a5,-1 # fffff <_data_lma+0xfc687>
    18da:	872a                	mv	a4,a0
    18dc:	7ff37313          	andi	t1,t1,2047
    18e0:	0146d513          	srli	a0,a3,0x14
    18e4:	7ff00393          	li	t2,2047
    18e8:	00b7f2b3          	and	t0,a5,a1
    18ec:	7ff57513          	andi	a0,a0,2047
    18f0:	8ff5                	and	a5,a5,a3
    18f2:	81fd                	srli	a1,a1,0x1f
    18f4:	82fd                	srli	a3,a3,0x1f
    18f6:	04730263          	beq	t1,t2,193a <__gedf2+0x6a>
    18fa:	02750563          	beq	a0,t2,1924 <__gedf2+0x54>
    18fe:	1161                	addi	sp,sp,-8
    1900:	c222                	sw	s0,4(sp)
    1902:	c026                	sw	s1,0(sp)
    1904:	843a                	mv	s0,a4
    1906:	84b2                	mv	s1,a2
    1908:	04031e63          	bnez	t1,1964 <__gedf2+0x94>
    190c:	00e2e733          	or	a4,t0,a4
    1910:	e521                	bnez	a0,1958 <__gedf2+0x88>
    1912:	8e5d                	or	a2,a2,a5
    1914:	ce29                	beqz	a2,196e <__gedf2+0x9e>
    1916:	eb3d                	bnez	a4,198c <__gedf2+0xbc>
    1918:	caa9                	beqz	a3,196a <__gedf2+0x9a>
    191a:	4412                	lw	s0,4(sp)
    191c:	4482                	lw	s1,0(sp)
    191e:	8536                	mv	a0,a3
    1920:	0121                	addi	sp,sp,8
    1922:	8082                	ret
    1924:	8fd1                	or	a5,a5,a2
    1926:	e3ad                	bnez	a5,1988 <__gedf2+0xb8>
    1928:	02031363          	bnez	t1,194e <__gedf2+0x7e>
    192c:	00e2e2b3          	or	t0,t0,a4
    1930:	00029f63          	bnez	t0,194e <__gedf2+0x7e>
    1934:	ca99                	beqz	a3,194a <__gedf2+0x7a>
    1936:	8536                	mv	a0,a3
    1938:	8082                	ret
    193a:	00e2e2b3          	or	t0,t0,a4
    193e:	04029563          	bnez	t0,1988 <__gedf2+0xb8>
    1942:	02650d63          	beq	a0,t1,197c <__gedf2+0xac>
    1946:	4685                	li	a3,1
    1948:	d5fd                	beqz	a1,1936 <__gedf2+0x66>
    194a:	56fd                	li	a3,-1
    194c:	b7ed                	j	1936 <__gedf2+0x66>
    194e:	fed59ce3          	bne	a1,a3,1946 <__gedf2+0x76>
    1952:	dde5                	beqz	a1,194a <__gedf2+0x7a>
    1954:	86ae                	mv	a3,a1
    1956:	b7c5                	j	1936 <__gedf2+0x66>
    1958:	d361                	beqz	a4,1918 <__gedf2+0x48>
    195a:	00d59663          	bne	a1,a3,1966 <__gedf2+0x96>
    195e:	c591                	beqz	a1,196a <__gedf2+0x9a>
    1960:	86ae                	mv	a3,a1
    1962:	bf65                	j	191a <__gedf2+0x4a>
    1964:	e121                	bnez	a0,19a4 <__gedf2+0xd4>
    1966:	4685                	li	a3,1
    1968:	d9cd                	beqz	a1,191a <__gedf2+0x4a>
    196a:	56fd                	li	a3,-1
    196c:	b77d                	j	191a <__gedf2+0x4a>
    196e:	4681                	li	a3,0
    1970:	fb7d                	bnez	a4,1966 <__gedf2+0x96>
    1972:	4412                	lw	s0,4(sp)
    1974:	4482                	lw	s1,0(sp)
    1976:	8536                	mv	a0,a3
    1978:	0121                	addi	sp,sp,8
    197a:	8082                	ret
    197c:	8fd1                	or	a5,a5,a2
    197e:	e789                	bnez	a5,1988 <__gedf2+0xb8>
    1980:	fcd593e3          	bne	a1,a3,1946 <__gedf2+0x76>
    1984:	4681                	li	a3,0
    1986:	bf45                	j	1936 <__gedf2+0x66>
    1988:	56f9                	li	a3,-2
    198a:	b775                	j	1936 <__gedf2+0x66>
    198c:	fcd59de3          	bne	a1,a3,1966 <__gedf2+0x96>
    1990:	fc57ebe3          	bltu	a5,t0,1966 <__gedf2+0x96>
    1994:	fcf295e3          	bne	t0,a5,195e <__gedf2+0x8e>
    1998:	fc84e7e3          	bltu	s1,s0,1966 <__gedf2+0x96>
    199c:	4681                	li	a3,0
    199e:	f6947ee3          	bgeu	s0,s1,191a <__gedf2+0x4a>
    19a2:	bf75                	j	195e <__gedf2+0x8e>
    19a4:	fcd591e3          	bne	a1,a3,1966 <__gedf2+0x96>
    19a8:	fa654fe3          	blt	a0,t1,1966 <__gedf2+0x96>
    19ac:	fea352e3          	bge	t1,a0,1990 <__gedf2+0xc0>
    19b0:	b77d                	j	195e <__gedf2+0x8e>

000019b2 <__ledf2>:
    19b2:	0145d313          	srli	t1,a1,0x14
    19b6:	001007b7          	lui	a5,0x100
    19ba:	17fd                	addi	a5,a5,-1 # fffff <_data_lma+0xfc687>
    19bc:	872a                	mv	a4,a0
    19be:	7ff37313          	andi	t1,t1,2047
    19c2:	0146d513          	srli	a0,a3,0x14
    19c6:	7ff00293          	li	t0,2047
    19ca:	00b7f3b3          	and	t2,a5,a1
    19ce:	7ff57513          	andi	a0,a0,2047
    19d2:	8ff5                	and	a5,a5,a3
    19d4:	81fd                	srli	a1,a1,0x1f
    19d6:	82fd                	srli	a3,a3,0x1f
    19d8:	02530f63          	beq	t1,t0,1a16 <__ledf2+0x64>
    19dc:	02550263          	beq	a0,t0,1a00 <__ledf2+0x4e>
    19e0:	1161                	addi	sp,sp,-8
    19e2:	c222                	sw	s0,4(sp)
    19e4:	c026                	sw	s1,0(sp)
    19e6:	843a                	mv	s0,a4
    19e8:	84b2                	mv	s1,a2
    19ea:	04031163          	bnez	t1,1a2c <__ledf2+0x7a>
    19ee:	00e3e733          	or	a4,t2,a4
    19f2:	e939                	bnez	a0,1a48 <__ledf2+0x96>
    19f4:	8e5d                	or	a2,a2,a5
    19f6:	ce39                	beqz	a2,1a54 <__ledf2+0xa2>
    19f8:	eb41                	bnez	a4,1a88 <__ledf2+0xd6>
    19fa:	ee85                	bnez	a3,1a32 <__ledf2+0x80>
    19fc:	56fd                	li	a3,-1
    19fe:	a815                	j	1a32 <__ledf2+0x80>
    1a00:	8fd1                	or	a5,a5,a2
    1a02:	e395                	bnez	a5,1a26 <__ledf2+0x74>
    1a04:	02031c63          	bnez	t1,1a3c <__ledf2+0x8a>
    1a08:	00e3e3b3          	or	t2,t2,a4
    1a0c:	02039863          	bnez	t2,1a3c <__ledf2+0x8a>
    1a10:	ee81                	bnez	a3,1a28 <__ledf2+0x76>
    1a12:	56fd                	li	a3,-1
    1a14:	a811                	j	1a28 <__ledf2+0x76>
    1a16:	00e3e3b3          	or	t2,t2,a4
    1a1a:	00039663          	bnez	t2,1a26 <__ledf2+0x74>
    1a1e:	02651163          	bne	a0,t1,1a40 <__ledf2+0x8e>
    1a22:	8fd1                	or	a5,a5,a2
    1a24:	cbb9                	beqz	a5,1a7a <__ledf2+0xc8>
    1a26:	4689                	li	a3,2
    1a28:	8536                	mv	a0,a3
    1a2a:	8082                	ret
    1a2c:	e51d                	bnez	a0,1a5a <__ledf2+0xa8>
    1a2e:	4685                	li	a3,1
    1a30:	f5f1                	bnez	a1,19fc <__ledf2+0x4a>
    1a32:	4412                	lw	s0,4(sp)
    1a34:	4482                	lw	s1,0(sp)
    1a36:	8536                	mv	a0,a3
    1a38:	0121                	addi	sp,sp,8
    1a3a:	8082                	ret
    1a3c:	04d58363          	beq	a1,a3,1a82 <__ledf2+0xd0>
    1a40:	4685                	li	a3,1
    1a42:	f9e1                	bnez	a1,1a12 <__ledf2+0x60>
    1a44:	8536                	mv	a0,a3
    1a46:	8082                	ret
    1a48:	db4d                	beqz	a4,19fa <__ledf2+0x48>
    1a4a:	fed592e3          	bne	a1,a3,1a2e <__ledf2+0x7c>
    1a4e:	d5dd                	beqz	a1,19fc <__ledf2+0x4a>
    1a50:	86ae                	mv	a3,a1
    1a52:	b7c5                	j	1a32 <__ledf2+0x80>
    1a54:	4681                	li	a3,0
    1a56:	df71                	beqz	a4,1a32 <__ledf2+0x80>
    1a58:	bfd9                	j	1a2e <__ledf2+0x7c>
    1a5a:	fcd59ae3          	bne	a1,a3,1a2e <__ledf2+0x7c>
    1a5e:	fc6548e3          	blt	a0,t1,1a2e <__ledf2+0x7c>
    1a62:	fea346e3          	blt	t1,a0,1a4e <__ledf2+0x9c>
    1a66:	fc77e4e3          	bltu	a5,t2,1a2e <__ledf2+0x7c>
    1a6a:	fef392e3          	bne	t2,a5,1a4e <__ledf2+0x9c>
    1a6e:	fc84e0e3          	bltu	s1,s0,1a2e <__ledf2+0x7c>
    1a72:	4681                	li	a3,0
    1a74:	fa947fe3          	bgeu	s0,s1,1a32 <__ledf2+0x80>
    1a78:	bfd9                	j	1a4e <__ledf2+0x9c>
    1a7a:	fcd593e3          	bne	a1,a3,1a40 <__ledf2+0x8e>
    1a7e:	4681                	li	a3,0
    1a80:	b765                	j	1a28 <__ledf2+0x76>
    1a82:	d9c1                	beqz	a1,1a12 <__ledf2+0x60>
    1a84:	86ae                	mv	a3,a1
    1a86:	b74d                	j	1a28 <__ledf2+0x76>
    1a88:	fcd58fe3          	beq	a1,a3,1a66 <__ledf2+0xb4>
    1a8c:	b74d                	j	1a2e <__ledf2+0x7c>

00001a8e <__muldf3>:
    1a8e:	7179                	addi	sp,sp,-48
    1a90:	0145d713          	srli	a4,a1,0x14
    1a94:	01f5d793          	srli	a5,a1,0x1f
    1a98:	d422                	sw	s0,40(sp)
    1a9a:	d226                	sw	s1,36(sp)
    1a9c:	d606                	sw	ra,44(sp)
    1a9e:	00c59493          	slli	s1,a1,0xc
    1aa2:	7ff77713          	andi	a4,a4,2047
    1aa6:	c43e                	sw	a5,8(sp)
    1aa8:	842a                	mv	s0,a0
    1aaa:	80b1                	srli	s1,s1,0xc
    1aac:	16070a63          	beqz	a4,1c20 <__muldf3+0x192>
    1ab0:	7ff00793          	li	a5,2047
    1ab4:	1af70863          	beq	a4,a5,1c64 <__muldf3+0x1d6>
    1ab8:	048e                	slli	s1,s1,0x3
    1aba:	01d55793          	srli	a5,a0,0x1d
    1abe:	8fc5                	or	a5,a5,s1
    1ac0:	008004b7          	lui	s1,0x800
    1ac4:	8cdd                	or	s1,s1,a5
    1ac6:	00351393          	slli	t2,a0,0x3
    1aca:	c0170713          	addi	a4,a4,-1023
    1ace:	4301                	li	t1,0
    1ad0:	c602                	sw	zero,12(sp)
    1ad2:	0146d793          	srli	a5,a3,0x14
    1ad6:	00c69413          	slli	s0,a3,0xc
    1ada:	7ff7f793          	andi	a5,a5,2047
    1ade:	82b2                	mv	t0,a2
    1ae0:	8031                	srli	s0,s0,0xc
    1ae2:	01f6d593          	srli	a1,a3,0x1f
    1ae6:	c3e5                	beqz	a5,1bc6 <__muldf3+0x138>
    1ae8:	7ff00693          	li	a3,2047
    1aec:	06d78663          	beq	a5,a3,1b58 <__muldf3+0xca>
    1af0:	c0178793          	addi	a5,a5,-1023
    1af4:	97ba                	add	a5,a5,a4
    1af6:	040e                	slli	s0,s0,0x3
    1af8:	01d65693          	srli	a3,a2,0x1d
    1afc:	8ec1                	or	a3,a3,s0
    1afe:	c23e                	sw	a5,4(sp)
    1b00:	00800437          	lui	s0,0x800
    1b04:	8c55                	or	s0,s0,a3
    1b06:	4692                	lw	a3,4(sp)
    1b08:	4729                	li	a4,10
    1b0a:	00361293          	slli	t0,a2,0x3
    1b0e:	0685                	addi	a3,a3,1
    1b10:	c836                	sw	a3,16(sp)
    1b12:	4781                	li	a5,0
    1b14:	18674f63          	blt	a4,t1,1cb2 <__muldf3+0x224>
    1b18:	4722                	lw	a4,8(sp)
    1b1a:	8f2d                	xor	a4,a4,a1
    1b1c:	c03a                	sw	a4,0(sp)
    1b1e:	86ba                	mv	a3,a4
    1b20:	4709                	li	a4,2
    1b22:	04674f63          	blt	a4,t1,1b80 <__muldf3+0xf2>
    1b26:	137d                	addi	t1,t1,-1 # 7fffff <_data_lma+0x7fc687>
    1b28:	4605                	li	a2,1
    1b2a:	1c666763          	bltu	a2,t1,1cf8 <__muldf3+0x26a>
    1b2e:	14e78663          	beq	a5,a4,1c7a <__muldf3+0x1ec>
    1b32:	4705                	li	a4,1
    1b34:	c036                	sw	a3,0(sp)
    1b36:	06e79963          	bne	a5,a4,1ba8 <__muldf3+0x11a>
    1b3a:	4781                	li	a5,0
    1b3c:	4401                	li	s0,0
    1b3e:	4701                	li	a4,0
    1b40:	4682                	lw	a3,0(sp)
    1b42:	07d2                	slli	a5,a5,0x14
    1b44:	50b2                	lw	ra,44(sp)
    1b46:	8fc1                	or	a5,a5,s0
    1b48:	5422                	lw	s0,40(sp)
    1b4a:	06fe                	slli	a3,a3,0x1f
    1b4c:	8fd5                	or	a5,a5,a3
    1b4e:	5492                	lw	s1,36(sp)
    1b50:	853a                	mv	a0,a4
    1b52:	85be                	mv	a1,a5
    1b54:	6145                	addi	sp,sp,48
    1b56:	8082                	ret
    1b58:	7ff70693          	addi	a3,a4,2047
    1b5c:	8e41                	or	a2,a2,s0
    1b5e:	c236                	sw	a3,4(sp)
    1b60:	12060963          	beqz	a2,1c92 <__muldf3+0x204>
    1b64:	46a2                	lw	a3,8(sp)
    1b66:	6605                	lui	a2,0x1
    1b68:	80060613          	addi	a2,a2,-2048 # 800 <GPIO_IPD_Unused+0x226>
    1b6c:	8ead                	xor	a3,a3,a1
    1b6e:	9732                	add	a4,a4,a2
    1b70:	c036                	sw	a3,0(sp)
    1b72:	00336313          	ori	t1,t1,3
    1b76:	4529                	li	a0,10
    1b78:	c83a                	sw	a4,16(sp)
    1b7a:	46654d63          	blt	a0,t1,1ff4 <__muldf3+0x566>
    1b7e:	478d                	li	a5,3
    1b80:	4605                	li	a2,1
    1b82:	00661633          	sll	a2,a2,t1
    1b86:	53067713          	andi	a4,a2,1328
    1b8a:	c315                	beqz	a4,1bae <__muldf3+0x120>
    1b8c:	4732                	lw	a4,12(sp)
    1b8e:	4789                	li	a5,2
    1b90:	0ef70563          	beq	a4,a5,1c7a <__muldf3+0x1ec>
    1b94:	478d                	li	a5,3
    1b96:	14f70a63          	beq	a4,a5,1cea <__muldf3+0x25c>
    1b9a:	87ba                	mv	a5,a4
    1b9c:	c036                	sw	a3,0(sp)
    1b9e:	4705                	li	a4,1
    1ba0:	8426                	mv	s0,s1
    1ba2:	829e                	mv	t0,t2
    1ba4:	f8e78be3          	beq	a5,a4,1b3a <__muldf3+0xac>
    1ba8:	47c2                	lw	a5,16(sp)
    1baa:	c23e                	sw	a5,4(sp)
    1bac:	a4c9                	j	1e6e <__muldf3+0x3e0>
    1bae:	24067693          	andi	a3,a2,576
    1bb2:	eaf1                	bnez	a3,1c86 <__muldf3+0x1f8>
    1bb4:	08867613          	andi	a2,a2,136
    1bb8:	14060063          	beqz	a2,1cf8 <__muldf3+0x26a>
    1bbc:	86ae                	mv	a3,a1
    1bbe:	84a2                	mv	s1,s0
    1bc0:	8396                	mv	t2,t0
    1bc2:	c63e                	sw	a5,12(sp)
    1bc4:	b7e1                	j	1b8c <__muldf3+0xfe>
    1bc6:	00c467b3          	or	a5,s0,a2
    1bca:	10078363          	beqz	a5,1cd0 <__muldf3+0x242>
    1bce:	36040663          	beqz	s0,1f3a <__muldf3+0x4ac>
    1bd2:	8522                	mv	a0,s0
    1bd4:	cc32                	sw	a2,24(sp)
    1bd6:	ca1a                	sw	t1,20(sp)
    1bd8:	c81e                	sw	t2,16(sp)
    1bda:	c22e                	sw	a1,4(sp)
    1bdc:	c03a                	sw	a4,0(sp)
    1bde:	187010ef          	jal	ra,3564 <__clzsi2>
    1be2:	4702                	lw	a4,0(sp)
    1be4:	4592                	lw	a1,4(sp)
    1be6:	43c2                	lw	t2,16(sp)
    1be8:	4352                	lw	t1,20(sp)
    1bea:	4662                	lw	a2,24(sp)
    1bec:	87aa                	mv	a5,a0
    1bee:	1555                	addi	a0,a0,-11
    1bf0:	46f5                	li	a3,29
    1bf2:	ff878293          	addi	t0,a5,-8
    1bf6:	8e89                	sub	a3,a3,a0
    1bf8:	00541433          	sll	s0,s0,t0
    1bfc:	00d656b3          	srl	a3,a2,a3
    1c00:	8c55                	or	s0,s0,a3
    1c02:	005612b3          	sll	t0,a2,t0
    1c06:	40f707b3          	sub	a5,a4,a5
    1c0a:	c0d78793          	addi	a5,a5,-1011
    1c0e:	c23e                	sw	a5,4(sp)
    1c10:	4692                	lw	a3,4(sp)
    1c12:	4729                	li	a4,10
    1c14:	4781                	li	a5,0
    1c16:	0685                	addi	a3,a3,1
    1c18:	c836                	sw	a3,16(sp)
    1c1a:	ee675fe3          	bge	a4,t1,1b18 <__muldf3+0x8a>
    1c1e:	a851                	j	1cb2 <__muldf3+0x224>
    1c20:	00a4e3b3          	or	t2,s1,a0
    1c24:	0a038063          	beqz	t2,1cc4 <__muldf3+0x236>
    1c28:	c236                	sw	a3,4(sp)
    1c2a:	c032                	sw	a2,0(sp)
    1c2c:	2e048763          	beqz	s1,1f1a <__muldf3+0x48c>
    1c30:	8526                	mv	a0,s1
    1c32:	133010ef          	jal	ra,3564 <__clzsi2>
    1c36:	4602                	lw	a2,0(sp)
    1c38:	4692                	lw	a3,4(sp)
    1c3a:	832a                	mv	t1,a0
    1c3c:	ff550713          	addi	a4,a0,-11
    1c40:	47f5                	li	a5,29
    1c42:	ff830393          	addi	t2,t1,-8
    1c46:	8f99                	sub	a5,a5,a4
    1c48:	007494b3          	sll	s1,s1,t2
    1c4c:	00f457b3          	srl	a5,s0,a5
    1c50:	8cdd                	or	s1,s1,a5
    1c52:	007413b3          	sll	t2,s0,t2
    1c56:	c0d00713          	li	a4,-1011
    1c5a:	40670733          	sub	a4,a4,t1
    1c5e:	c602                	sw	zero,12(sp)
    1c60:	4301                	li	t1,0
    1c62:	bd85                	j	1ad2 <__muldf3+0x44>
    1c64:	00a4e3b3          	or	t2,s1,a0
    1c68:	04039763          	bnez	t2,1cb6 <__muldf3+0x228>
    1c6c:	4789                	li	a5,2
    1c6e:	4481                	li	s1,0
    1c70:	4321                	li	t1,8
    1c72:	7ff00713          	li	a4,2047
    1c76:	c63e                	sw	a5,12(sp)
    1c78:	bda9                	j	1ad2 <__muldf3+0x44>
    1c7a:	c036                	sw	a3,0(sp)
    1c7c:	7ff00793          	li	a5,2047
    1c80:	4401                	li	s0,0
    1c82:	4701                	li	a4,0
    1c84:	bd75                	j	1b40 <__muldf3+0xb2>
    1c86:	c002                	sw	zero,0(sp)
    1c88:	7ff00793          	li	a5,2047
    1c8c:	00080437          	lui	s0,0x80
    1c90:	bd45                	j	1b40 <__muldf3+0xb2>
    1c92:	6685                	lui	a3,0x1
    1c94:	80068693          	addi	a3,a3,-2048 # 800 <GPIO_IPD_Unused+0x226>
    1c98:	9736                	add	a4,a4,a3
    1c9a:	00236313          	ori	t1,t1,2
    1c9e:	47a9                	li	a5,10
    1ca0:	c83a                	sw	a4,16(sp)
    1ca2:	2c67da63          	bge	a5,t1,1f76 <__muldf3+0x4e8>
    1ca6:	4281                	li	t0,0
    1ca8:	4739                	li	a4,14
    1caa:	4789                	li	a5,2
    1cac:	46ad                	li	a3,11
    1cae:	34d70163          	beq	a4,a3,1ff0 <__muldf3+0x562>
    1cb2:	46a2                	lw	a3,8(sp)
    1cb4:	bde1                	j	1b8c <__muldf3+0xfe>
    1cb6:	478d                	li	a5,3
    1cb8:	83aa                	mv	t2,a0
    1cba:	4331                	li	t1,12
    1cbc:	7ff00713          	li	a4,2047
    1cc0:	c63e                	sw	a5,12(sp)
    1cc2:	bd01                	j	1ad2 <__muldf3+0x44>
    1cc4:	4785                	li	a5,1
    1cc6:	4481                	li	s1,0
    1cc8:	4311                	li	t1,4
    1cca:	4701                	li	a4,0
    1ccc:	c63e                	sw	a5,12(sp)
    1cce:	b511                	j	1ad2 <__muldf3+0x44>
    1cd0:	c23a                	sw	a4,4(sp)
    1cd2:	4692                	lw	a3,4(sp)
    1cd4:	00136313          	ori	t1,t1,1
    1cd8:	4729                	li	a4,10
    1cda:	0685                	addi	a3,a3,1
    1cdc:	c836                	sw	a3,16(sp)
    1cde:	4401                	li	s0,0
    1ce0:	4281                	li	t0,0
    1ce2:	4785                	li	a5,1
    1ce4:	e2675ae3          	bge	a4,t1,1b18 <__muldf3+0x8a>
    1ce8:	b7e9                	j	1cb2 <__muldf3+0x224>
    1cea:	c002                	sw	zero,0(sp)
    1cec:	7ff00793          	li	a5,2047
    1cf0:	00080437          	lui	s0,0x80
    1cf4:	4701                	li	a4,0
    1cf6:	b5a9                	j	1b40 <__muldf3+0xb2>
    1cf8:	6641                	lui	a2,0x10
    1cfa:	fff60713          	addi	a4,a2,-1 # ffff <_data_lma+0xc687>
    1cfe:	0103d793          	srli	a5,t2,0x10
    1d02:	0102d313          	srli	t1,t0,0x10
    1d06:	00e3f3b3          	and	t2,t2,a4
    1d0a:	00e2f733          	and	a4,t0,a4
    1d0e:	02e386b3          	mul	a3,t2,a4
    1d12:	c43a                	sw	a4,8(sp)
    1d14:	02e785b3          	mul	a1,a5,a4
    1d18:	0106d513          	srli	a0,a3,0x10
    1d1c:	02730733          	mul	a4,t1,t2
    1d20:	972e                	add	a4,a4,a1
    1d22:	972a                	add	a4,a4,a0
    1d24:	02678533          	mul	a0,a5,t1
    1d28:	c62a                	sw	a0,12(sp)
    1d2a:	00b77463          	bgeu	a4,a1,1d32 <__muldf3+0x2a4>
    1d2e:	962a                	add	a2,a2,a0
    1d30:	c632                	sw	a2,12(sp)
    1d32:	65c1                	lui	a1,0x10
    1d34:	fff58613          	addi	a2,a1,-1 # ffff <_data_lma+0xc687>
    1d38:	00c77533          	and	a0,a4,a2
    1d3c:	8ef1                	and	a3,a3,a2
    1d3e:	8341                	srli	a4,a4,0x10
    1d40:	0542                	slli	a0,a0,0x10
    1d42:	01045293          	srli	t0,s0,0x10
    1d46:	ca3a                	sw	a4,20(sp)
    1d48:	8c71                	and	s0,s0,a2
    1d4a:	00d50733          	add	a4,a0,a3
    1d4e:	02838633          	mul	a2,t2,s0
    1d52:	cc3a                	sw	a4,24(sp)
    1d54:	ce16                	sw	t0,28(sp)
    1d56:	02878733          	mul	a4,a5,s0
    1d5a:	01065693          	srli	a3,a2,0x10
    1d5e:	027283b3          	mul	t2,t0,t2
    1d62:	93ba                	add	t2,t2,a4
    1d64:	969e                	add	a3,a3,t2
    1d66:	025787b3          	mul	a5,a5,t0
    1d6a:	00e6f363          	bgeu	a3,a4,1d70 <__muldf3+0x2e2>
    1d6e:	97ae                	add	a5,a5,a1
    1d70:	6541                	lui	a0,0x10
    1d72:	fff50593          	addi	a1,a0,-1 # ffff <_data_lma+0xc687>
    1d76:	00b6f2b3          	and	t0,a3,a1
    1d7a:	82c1                	srli	a3,a3,0x10
    1d7c:	96be                	add	a3,a3,a5
    1d7e:	0104d713          	srli	a4,s1,0x10
    1d82:	47a2                	lw	a5,8(sp)
    1d84:	8ced                	and	s1,s1,a1
    1d86:	d036                	sw	a3,32(sp)
    1d88:	8df1                	and	a1,a1,a2
    1d8a:	46d2                	lw	a3,20(sp)
    1d8c:	4622                	lw	a2,8(sp)
    1d8e:	02c2                	slli	t0,t0,0x10
    1d90:	92ae                	add	t0,t0,a1
    1d92:	02960633          	mul	a2,a2,s1
    1d96:	005683b3          	add	t2,a3,t0
    1d9a:	029305b3          	mul	a1,t1,s1
    1d9e:	02f706b3          	mul	a3,a4,a5
    1da2:	01065793          	srli	a5,a2,0x10
    1da6:	95b6                	add	a1,a1,a3
    1da8:	97ae                	add	a5,a5,a1
    1daa:	02e30333          	mul	t1,t1,a4
    1dae:	00d7f363          	bgeu	a5,a3,1db4 <__muldf3+0x326>
    1db2:	932a                	add	t1,t1,a0
    1db4:	6541                	lui	a0,0x10
    1db6:	fff50693          	addi	a3,a0,-1 # ffff <_data_lma+0xc687>
    1dba:	00d7f5b3          	and	a1,a5,a3
    1dbe:	05c2                	slli	a1,a1,0x10
    1dc0:	8ef1                	and	a3,a3,a2
    1dc2:	96ae                	add	a3,a3,a1
    1dc4:	83c1                	srli	a5,a5,0x10
    1dc6:	02940633          	mul	a2,s0,s1
    1dca:	979a                	add	a5,a5,t1
    1dcc:	028705b3          	mul	a1,a4,s0
    1dd0:	4472                	lw	s0,28(sp)
    1dd2:	01065313          	srli	t1,a2,0x10
    1dd6:	029404b3          	mul	s1,s0,s1
    1dda:	94ae                	add	s1,s1,a1
    1ddc:	949a                	add	s1,s1,t1
    1dde:	02e40733          	mul	a4,s0,a4
    1de2:	00b4f363          	bgeu	s1,a1,1de8 <__muldf3+0x35a>
    1de6:	972a                	add	a4,a4,a0
    1de8:	65c1                	lui	a1,0x10
    1dea:	15fd                	addi	a1,a1,-1 # ffff <_data_lma+0xc687>
    1dec:	00b4f533          	and	a0,s1,a1
    1df0:	8e6d                	and	a2,a2,a1
    1df2:	0542                	slli	a0,a0,0x10
    1df4:	45b2                	lw	a1,12(sp)
    1df6:	9532                	add	a0,a0,a2
    1df8:	5602                	lw	a2,32(sp)
    1dfa:	959e                	add	a1,a1,t2
    1dfc:	0055b2b3          	sltu	t0,a1,t0
    1e00:	962a                	add	a2,a2,a0
    1e02:	92b2                	add	t0,t0,a2
    1e04:	96ae                	add	a3,a3,a1
    1e06:	9796                	add	a5,a5,t0
    1e08:	00b6b5b3          	sltu	a1,a3,a1
    1e0c:	95be                	add	a1,a1,a5
    1e0e:	00a63533          	sltu	a0,a2,a0
    1e12:	00c2b633          	sltu	a2,t0,a2
    1e16:	0057b433          	sltu	s0,a5,t0
    1e1a:	8e49                	or	a2,a2,a0
    1e1c:	00f5b7b3          	sltu	a5,a1,a5
    1e20:	80c1                	srli	s1,s1,0x10
    1e22:	8c5d                	or	s0,s0,a5
    1e24:	9626                	add	a2,a2,s1
    1e26:	9432                	add	s0,s0,a2
    1e28:	943a                	add	s0,s0,a4
    1e2a:	4762                	lw	a4,24(sp)
    1e2c:	00969293          	slli	t0,a3,0x9
    1e30:	0175d793          	srli	a5,a1,0x17
    1e34:	0426                	slli	s0,s0,0x9
    1e36:	00e2e2b3          	or	t0,t0,a4
    1e3a:	8c5d                	or	s0,s0,a5
    1e3c:	005032b3          	snez	t0,t0
    1e40:	82dd                	srli	a3,a3,0x17
    1e42:	010007b7          	lui	a5,0x1000
    1e46:	00d2e2b3          	or	t0,t0,a3
    1e4a:	05a6                	slli	a1,a1,0x9
    1e4c:	8fe1                	and	a5,a5,s0
    1e4e:	00b2e2b3          	or	t0,t0,a1
    1e52:	cf91                	beqz	a5,1e6e <__muldf3+0x3e0>
    1e54:	0012d793          	srli	a5,t0,0x1
    1e58:	0012f293          	andi	t0,t0,1
    1e5c:	01f41713          	slli	a4,s0,0x1f
    1e60:	0057e7b3          	or	a5,a5,t0
    1e64:	00e7e2b3          	or	t0,a5,a4
    1e68:	47c2                	lw	a5,16(sp)
    1e6a:	8005                	srli	s0,s0,0x1
    1e6c:	c23e                	sw	a5,4(sp)
    1e6e:	4792                	lw	a5,4(sp)
    1e70:	3ff78793          	addi	a5,a5,1023 # 10003ff <_data_lma+0xffca87>
    1e74:	04f05a63          	blez	a5,1ec8 <__muldf3+0x43a>
    1e78:	0072f713          	andi	a4,t0,7
    1e7c:	cf01                	beqz	a4,1e94 <__muldf3+0x406>
    1e7e:	00f2f713          	andi	a4,t0,15
    1e82:	4691                	li	a3,4
    1e84:	00d70863          	beq	a4,a3,1e94 <__muldf3+0x406>
    1e88:	00428713          	addi	a4,t0,4
    1e8c:	005732b3          	sltu	t0,a4,t0
    1e90:	9416                	add	s0,s0,t0
    1e92:	82ba                	mv	t0,a4
    1e94:	01000737          	lui	a4,0x1000
    1e98:	8f61                	and	a4,a4,s0
    1e9a:	cb01                	beqz	a4,1eaa <__muldf3+0x41c>
    1e9c:	ff0007b7          	lui	a5,0xff000
    1ea0:	17fd                	addi	a5,a5,-1 # feffffff <_eusrstack+0xdeffefff>
    1ea2:	8c7d                	and	s0,s0,a5
    1ea4:	4792                	lw	a5,4(sp)
    1ea6:	40078793          	addi	a5,a5,1024
    1eaa:	7fe00713          	li	a4,2046
    1eae:	0af74f63          	blt	a4,a5,1f6c <__muldf3+0x4de>
    1eb2:	01d41713          	slli	a4,s0,0x1d
    1eb6:	0032d293          	srli	t0,t0,0x3
    1eba:	0426                	slli	s0,s0,0x9
    1ebc:	00576733          	or	a4,a4,t0
    1ec0:	8031                	srli	s0,s0,0xc
    1ec2:	7ff7f793          	andi	a5,a5,2047
    1ec6:	b9ad                	j	1b40 <__muldf3+0xb2>
    1ec8:	4705                	li	a4,1
    1eca:	efd5                	bnez	a5,1f86 <__muldf3+0x4f8>
    1ecc:	4792                	lw	a5,4(sp)
    1ece:	00e45633          	srl	a2,s0,a4
    1ed2:	41e78793          	addi	a5,a5,1054
    1ed6:	00f296b3          	sll	a3,t0,a5
    1eda:	00d036b3          	snez	a3,a3
    1ede:	00f417b3          	sll	a5,s0,a5
    1ee2:	8edd                	or	a3,a3,a5
    1ee4:	00e2d2b3          	srl	t0,t0,a4
    1ee8:	0056e6b3          	or	a3,a3,t0
    1eec:	0076f793          	andi	a5,a3,7
    1ef0:	cf81                	beqz	a5,1f08 <__muldf3+0x47a>
    1ef2:	00f6f793          	andi	a5,a3,15
    1ef6:	4711                	li	a4,4
    1ef8:	00e78863          	beq	a5,a4,1f08 <__muldf3+0x47a>
    1efc:	00468793          	addi	a5,a3,4
    1f00:	00d7b6b3          	sltu	a3,a5,a3
    1f04:	9636                	add	a2,a2,a3
    1f06:	86be                	mv	a3,a5
    1f08:	008005b7          	lui	a1,0x800
    1f0c:	8df1                	and	a1,a1,a2
    1f0e:	4785                	li	a5,1
    1f10:	4401                	li	s0,0
    1f12:	4701                	li	a4,0
    1f14:	c20596e3          	bnez	a1,1b40 <__muldf3+0xb2>
    1f18:	a0d9                	j	1fde <__muldf3+0x550>
    1f1a:	64a010ef          	jal	ra,3564 <__clzsi2>
    1f1e:	01550713          	addi	a4,a0,21
    1f22:	47f1                	li	a5,28
    1f24:	4602                	lw	a2,0(sp)
    1f26:	4692                	lw	a3,4(sp)
    1f28:	02050313          	addi	t1,a0,32
    1f2c:	d0e7dae3          	bge	a5,a4,1c40 <__muldf3+0x1b2>
    1f30:	1561                	addi	a0,a0,-8
    1f32:	4381                	li	t2,0
    1f34:	00a414b3          	sll	s1,s0,a0
    1f38:	bb39                	j	1c56 <__muldf3+0x1c8>
    1f3a:	8532                	mv	a0,a2
    1f3c:	cc1a                	sw	t1,24(sp)
    1f3e:	ca1e                	sw	t2,20(sp)
    1f40:	c82e                	sw	a1,16(sp)
    1f42:	c23a                	sw	a4,4(sp)
    1f44:	c032                	sw	a2,0(sp)
    1f46:	61e010ef          	jal	ra,3564 <__clzsi2>
    1f4a:	86aa                	mv	a3,a0
    1f4c:	42f1                	li	t0,28
    1f4e:	0555                	addi	a0,a0,21
    1f50:	4602                	lw	a2,0(sp)
    1f52:	4712                	lw	a4,4(sp)
    1f54:	45c2                	lw	a1,16(sp)
    1f56:	43d2                	lw	t2,20(sp)
    1f58:	4362                	lw	t1,24(sp)
    1f5a:	02068793          	addi	a5,a3,32
    1f5e:	c8a2d9e3          	bge	t0,a0,1bf0 <__muldf3+0x162>
    1f62:	16e1                	addi	a3,a3,-8
    1f64:	4281                	li	t0,0
    1f66:	00d61433          	sll	s0,a2,a3
    1f6a:	b971                	j	1c06 <__muldf3+0x178>
    1f6c:	7ff00793          	li	a5,2047
    1f70:	4401                	li	s0,0
    1f72:	4701                	li	a4,0
    1f74:	b6f1                	j	1b40 <__muldf3+0xb2>
    1f76:	47a2                	lw	a5,8(sp)
    1f78:	4401                	li	s0,0
    1f7a:	4281                	li	t0,0
    1f7c:	8fad                	xor	a5,a5,a1
    1f7e:	c03e                	sw	a5,0(sp)
    1f80:	86be                	mv	a3,a5
    1f82:	4789                	li	a5,2
    1f84:	be71                	j	1b20 <__muldf3+0x92>
    1f86:	8f1d                	sub	a4,a4,a5
    1f88:	03800693          	li	a3,56
    1f8c:	bae6c7e3          	blt	a3,a4,1b3a <__muldf3+0xac>
    1f90:	46fd                	li	a3,31
    1f92:	f2e6dde3          	bge	a3,a4,1ecc <__muldf3+0x43e>
    1f96:	5685                	li	a3,-31
    1f98:	40f687b3          	sub	a5,a3,a5
    1f9c:	02000693          	li	a3,32
    1fa0:	00f457b3          	srl	a5,s0,a5
    1fa4:	00d70963          	beq	a4,a3,1fb6 <__muldf3+0x528>
    1fa8:	4712                	lw	a4,4(sp)
    1faa:	43e70713          	addi	a4,a4,1086 # 100043e <_data_lma+0xffcac6>
    1fae:	00e41733          	sll	a4,s0,a4
    1fb2:	00e2e2b3          	or	t0,t0,a4
    1fb6:	005036b3          	snez	a3,t0
    1fba:	8edd                	or	a3,a3,a5
    1fbc:	0076f713          	andi	a4,a3,7
    1fc0:	4401                	li	s0,0
    1fc2:	c31d                	beqz	a4,1fe8 <__muldf3+0x55a>
    1fc4:	00f6f793          	andi	a5,a3,15
    1fc8:	4711                	li	a4,4
    1fca:	4601                	li	a2,0
    1fcc:	00e78963          	beq	a5,a4,1fde <__muldf3+0x550>
    1fd0:	00468793          	addi	a5,a3,4
    1fd4:	00d7b733          	sltu	a4,a5,a3
    1fd8:	00e03633          	snez	a2,a4
    1fdc:	86be                	mv	a3,a5
    1fde:	00961413          	slli	s0,a2,0x9
    1fe2:	01d61713          	slli	a4,a2,0x1d
    1fe6:	8031                	srli	s0,s0,0xc
    1fe8:	828d                	srli	a3,a3,0x3
    1fea:	8f55                	or	a4,a4,a3
    1fec:	4781                	li	a5,0
    1fee:	be89                	j	1b40 <__muldf3+0xb2>
    1ff0:	8432                	mv	s0,a2
    1ff2:	b6e9                	j	1bbc <__muldf3+0x12e>
    1ff4:	473d                	li	a4,15
    1ff6:	00e31763          	bne	t1,a4,2004 <__muldf3+0x576>
    1ffa:	c002                	sw	zero,0(sp)
    1ffc:	00080437          	lui	s0,0x80
    2000:	4701                	li	a4,0
    2002:	be3d                	j	1b40 <__muldf3+0xb2>
    2004:	8622                	mv	a2,s0
    2006:	472d                	li	a4,11
    2008:	478d                	li	a5,3
    200a:	b14d                	j	1cac <__muldf3+0x21e>

0000200c <__subdf3>:
    200c:	001007b7          	lui	a5,0x100
    2010:	17fd                	addi	a5,a5,-1 # fffff <_data_lma+0xfc687>
    2012:	1131                	addi	sp,sp,-20
    2014:	00b7f733          	and	a4,a5,a1
    2018:	070e                	slli	a4,a4,0x3
    201a:	c426                	sw	s1,8(sp)
    201c:	01d55493          	srli	s1,a0,0x1d
    2020:	8ff5                	and	a5,a5,a3
    2022:	0146d313          	srli	t1,a3,0x14
    2026:	8cd9                	or	s1,s1,a4
    2028:	00351713          	slli	a4,a0,0x3
    202c:	c622                	sw	s0,12(sp)
    202e:	078e                	slli	a5,a5,0x3
    2030:	0145d413          	srli	s0,a1,0x14
    2034:	01d65393          	srli	t2,a2,0x1d
    2038:	c03a                	sw	a4,0(sp)
    203a:	c806                	sw	ra,16(sp)
    203c:	7ff37313          	andi	t1,t1,2047
    2040:	7ff00293          	li	t0,2047
    2044:	7ff47413          	andi	s0,s0,2047
    2048:	81fd                	srli	a1,a1,0x1f
    204a:	82fd                	srli	a3,a3,0x1f
    204c:	00f3e7b3          	or	a5,t2,a5
    2050:	00361713          	slli	a4,a2,0x3
    2054:	1a530b63          	beq	t1,t0,220a <__subdf3+0x1fe>
    2058:	0016c693          	xori	a3,a3,1
    205c:	406403b3          	sub	t2,s0,t1
    2060:	10d58f63          	beq	a1,a3,217e <__subdf3+0x172>
    2064:	54705763          	blez	t2,25b2 <__subdf3+0x5a6>
    2068:	1e030263          	beqz	t1,224c <__subdf3+0x240>
    206c:	52540a63          	beq	s0,t0,25a0 <__subdf3+0x594>
    2070:	03800693          	li	a3,56
    2074:	4605                	li	a2,1
    2076:	0276ca63          	blt	a3,t2,20aa <__subdf3+0x9e>
    207a:	008006b7          	lui	a3,0x800
    207e:	8fd5                	or	a5,a5,a3
    2080:	46fd                	li	a3,31
    2082:	4076ce63          	blt	a3,t2,249e <__subdf3+0x492>
    2086:	02000693          	li	a3,32
    208a:	407686b3          	sub	a3,a3,t2
    208e:	00d79633          	sll	a2,a5,a3
    2092:	00775533          	srl	a0,a4,t2
    2096:	00d716b3          	sll	a3,a4,a3
    209a:	8e49                	or	a2,a2,a0
    209c:	00d036b3          	snez	a3,a3
    20a0:	0077d3b3          	srl	t2,a5,t2
    20a4:	8e55                	or	a2,a2,a3
    20a6:	407484b3          	sub	s1,s1,t2
    20aa:	4782                	lw	a5,0(sp)
    20ac:	40c78633          	sub	a2,a5,a2
    20b0:	00c7b7b3          	sltu	a5,a5,a2
    20b4:	8c9d                	sub	s1,s1,a5
    20b6:	008007b7          	lui	a5,0x800
    20ba:	00f4f733          	and	a4,s1,a5
    20be:	28070c63          	beqz	a4,2356 <__subdf3+0x34a>
    20c2:	17fd                	addi	a5,a5,-1 # 7fffff <_data_lma+0x7fc687>
    20c4:	8cfd                	and	s1,s1,a5
    20c6:	28048d63          	beqz	s1,2360 <__subdf3+0x354>
    20ca:	8526                	mv	a0,s1
    20cc:	c232                	sw	a2,4(sp)
    20ce:	c02e                	sw	a1,0(sp)
    20d0:	494010ef          	jal	ra,3564 <__clzsi2>
    20d4:	4582                	lw	a1,0(sp)
    20d6:	4612                	lw	a2,4(sp)
    20d8:	ff850693          	addi	a3,a0,-8
    20dc:	02000793          	li	a5,32
    20e0:	40d78533          	sub	a0,a5,a3
    20e4:	00a65533          	srl	a0,a2,a0
    20e8:	00d49733          	sll	a4,s1,a3
    20ec:	8d59                	or	a0,a0,a4
    20ee:	00d61633          	sll	a2,a2,a3
    20f2:	3086c363          	blt	a3,s0,23f8 <__subdf3+0x3ec>
    20f6:	8e81                	sub	a3,a3,s0
    20f8:	0685                	addi	a3,a3,1 # 800001 <_data_lma+0x7fc689>
    20fa:	8f95                	sub	a5,a5,a3
    20fc:	00f61733          	sll	a4,a2,a5
    2100:	00d654b3          	srl	s1,a2,a3
    2104:	00e03733          	snez	a4,a4
    2108:	8f45                	or	a4,a4,s1
    210a:	00f517b3          	sll	a5,a0,a5
    210e:	00e7e633          	or	a2,a5,a4
    2112:	00d554b3          	srl	s1,a0,a3
    2116:	4401                	li	s0,0
    2118:	00767793          	andi	a5,a2,7
    211c:	cf81                	beqz	a5,2134 <__subdf3+0x128>
    211e:	00f67793          	andi	a5,a2,15
    2122:	4711                	li	a4,4
    2124:	00e78863          	beq	a5,a4,2134 <__subdf3+0x128>
    2128:	00460793          	addi	a5,a2,4
    212c:	00c7b633          	sltu	a2,a5,a2
    2130:	94b2                	add	s1,s1,a2
    2132:	863e                	mv	a2,a5
    2134:	008007b7          	lui	a5,0x800
    2138:	8fe5                	and	a5,a5,s1
    213a:	26078f63          	beqz	a5,23b8 <__subdf3+0x3ac>
    213e:	0405                	addi	s0,s0,1 # 80001 <_data_lma+0x7c689>
    2140:	7ff00793          	li	a5,2047
    2144:	20f40263          	beq	s0,a5,2348 <__subdf3+0x33c>
    2148:	ff8007b7          	lui	a5,0xff800
    214c:	17fd                	addi	a5,a5,-1 # ff7fffff <_eusrstack+0xdf7fefff>
    214e:	8fe5                	and	a5,a5,s1
    2150:	01d79313          	slli	t1,a5,0x1d
    2154:	820d                	srli	a2,a2,0x3
    2156:	07a6                	slli	a5,a5,0x9
    2158:	00c36333          	or	t1,t1,a2
    215c:	83b1                	srli	a5,a5,0xc
    215e:	7ff47413          	andi	s0,s0,2047
    2162:	0015f713          	andi	a4,a1,1
    2166:	0452                	slli	s0,s0,0x14
    2168:	8c5d                	or	s0,s0,a5
    216a:	01f71793          	slli	a5,a4,0x1f
    216e:	8c5d                	or	s0,s0,a5
    2170:	40c2                	lw	ra,16(sp)
    2172:	85a2                	mv	a1,s0
    2174:	4432                	lw	s0,12(sp)
    2176:	44a2                	lw	s1,8(sp)
    2178:	851a                	mv	a0,t1
    217a:	0151                	addi	sp,sp,20
    217c:	8082                	ret
    217e:	5c705c63          	blez	t2,2756 <__subdf3+0x74a>
    2182:	1a031863          	bnez	t1,2332 <__subdf3+0x326>
    2186:	00e7e6b3          	or	a3,a5,a4
    218a:	26068263          	beqz	a3,23ee <__subdf3+0x3e2>
    218e:	fff38613          	addi	a2,t2,-1
    2192:	3c060c63          	beqz	a2,256a <__subdf3+0x55e>
    2196:	2c538163          	beq	t2,t0,2458 <__subdf3+0x44c>
    219a:	03800513          	li	a0,56
    219e:	4685                	li	a3,1
    21a0:	02c54763          	blt	a0,a2,21ce <__subdf3+0x1c2>
    21a4:	83b2                	mv	t2,a2
    21a6:	46fd                	li	a3,31
    21a8:	4476ca63          	blt	a3,t2,25fc <__subdf3+0x5f0>
    21ac:	02000613          	li	a2,32
    21b0:	40760633          	sub	a2,a2,t2
    21b4:	00c796b3          	sll	a3,a5,a2
    21b8:	00775533          	srl	a0,a4,t2
    21bc:	00c71633          	sll	a2,a4,a2
    21c0:	8ec9                	or	a3,a3,a0
    21c2:	00c03633          	snez	a2,a2
    21c6:	0077d3b3          	srl	t2,a5,t2
    21ca:	8ed1                	or	a3,a3,a2
    21cc:	949e                	add	s1,s1,t2
    21ce:	4782                	lw	a5,0(sp)
    21d0:	00f68633          	add	a2,a3,a5
    21d4:	00d636b3          	sltu	a3,a2,a3
    21d8:	94b6                	add	s1,s1,a3
    21da:	008007b7          	lui	a5,0x800
    21de:	8fe5                	and	a5,a5,s1
    21e0:	16078b63          	beqz	a5,2356 <__subdf3+0x34a>
    21e4:	0405                	addi	s0,s0,1
    21e6:	7ff00793          	li	a5,2047
    21ea:	14f40f63          	beq	s0,a5,2348 <__subdf3+0x33c>
    21ee:	ff8007b7          	lui	a5,0xff800
    21f2:	17fd                	addi	a5,a5,-1 # ff7fffff <_eusrstack+0xdf7fefff>
    21f4:	8fe5                	and	a5,a5,s1
    21f6:	00165713          	srli	a4,a2,0x1
    21fa:	8a05                	andi	a2,a2,1
    21fc:	8f51                	or	a4,a4,a2
    21fe:	01f79613          	slli	a2,a5,0x1f
    2202:	8e59                	or	a2,a2,a4
    2204:	0017d493          	srli	s1,a5,0x1
    2208:	bf01                	j	2118 <__subdf3+0x10c>
    220a:	00e7e2b3          	or	t0,a5,a4
    220e:	80140393          	addi	t2,s0,-2047
    2212:	04028e63          	beqz	t0,226e <__subdf3+0x262>
    2216:	06d58063          	beq	a1,a3,2276 <__subdf3+0x26a>
    221a:	0c038263          	beqz	t2,22de <__subdf3+0x2d2>
    221e:	1c040063          	beqz	s0,23de <__subdf3+0x3d2>
    2222:	00361313          	slli	t1,a2,0x3
    2226:	01d79713          	slli	a4,a5,0x1d
    222a:	00335313          	srli	t1,t1,0x3
    222e:	00e36333          	or	t1,t1,a4
    2232:	838d                	srli	a5,a5,0x3
    2234:	85b6                	mv	a1,a3
    2236:	00f367b3          	or	a5,t1,a5
    223a:	10078763          	beqz	a5,2348 <__subdf3+0x33c>
    223e:	4701                	li	a4,0
    2240:	7ff00413          	li	s0,2047
    2244:	000807b7          	lui	a5,0x80
    2248:	4301                	li	t1,0
    224a:	bf31                	j	2166 <__subdf3+0x15a>
    224c:	00e7e6b3          	or	a3,a5,a4
    2250:	18068f63          	beqz	a3,23ee <__subdf3+0x3e2>
    2254:	fff38693          	addi	a3,t2,-1
    2258:	32068963          	beqz	a3,258a <__subdf3+0x57e>
    225c:	1e538e63          	beq	t2,t0,2458 <__subdf3+0x44c>
    2260:	03800513          	li	a0,56
    2264:	4605                	li	a2,1
    2266:	e4d542e3          	blt	a0,a3,20aa <__subdf3+0x9e>
    226a:	83b6                	mv	t2,a3
    226c:	bd11                	j	2080 <__subdf3+0x74>
    226e:	0016c693          	xori	a3,a3,1
    2272:	fad594e3          	bne	a1,a3,221a <__subdf3+0x20e>
    2276:	18038863          	beqz	t2,2406 <__subdf3+0x3fa>
    227a:	26041b63          	bnez	s0,24f0 <__subdf3+0x4e4>
    227e:	7ff00393          	li	t2,2047
    2282:	4682                	lw	a3,0(sp)
    2284:	8ec5                	or	a3,a3,s1
    2286:	40068463          	beqz	a3,268e <__subdf3+0x682>
    228a:	fff38513          	addi	a0,t2,-1
    228e:	2c050e63          	beqz	a0,256a <__subdf3+0x55e>
    2292:	7ff00693          	li	a3,2047
    2296:	24d38d63          	beq	t2,a3,24f0 <__subdf3+0x4e4>
    229a:	03800613          	li	a2,56
    229e:	4685                	li	a3,1
    22a0:	02a64763          	blt	a2,a0,22ce <__subdf3+0x2c2>
    22a4:	46fd                	li	a3,31
    22a6:	44a6c263          	blt	a3,a0,26ea <__subdf3+0x6de>
    22aa:	4602                	lw	a2,0(sp)
    22ac:	02000693          	li	a3,32
    22b0:	8e89                	sub	a3,a3,a0
    22b2:	00a653b3          	srl	t2,a2,a0
    22b6:	00d492b3          	sll	t0,s1,a3
    22ba:	00d61633          	sll	a2,a2,a3
    22be:	00c03633          	snez	a2,a2
    22c2:	0072e6b3          	or	a3,t0,t2
    22c6:	00a4d533          	srl	a0,s1,a0
    22ca:	8ed1                	or	a3,a3,a2
    22cc:	97aa                	add	a5,a5,a0
    22ce:	00e68633          	add	a2,a3,a4
    22d2:	00d636b3          	sltu	a3,a2,a3
    22d6:	00f684b3          	add	s1,a3,a5
    22da:	841a                	mv	s0,t1
    22dc:	bdfd                	j	21da <__subdf3+0x1ce>
    22de:	00140313          	addi	t1,s0,1
    22e2:	7fe37313          	andi	t1,t1,2046
    22e6:	18031463          	bnez	t1,246e <__subdf3+0x462>
    22ea:	00351293          	slli	t0,a0,0x3
    22ee:	00e7e333          	or	t1,a5,a4
    22f2:	0054e2b3          	or	t0,s1,t0
    22f6:	26041063          	bnez	s0,2556 <__subdf3+0x54a>
    22fa:	34028963          	beqz	t0,264c <__subdf3+0x640>
    22fe:	36030e63          	beqz	t1,267a <__subdf3+0x66e>
    2302:	4302                	lw	t1,0(sp)
    2304:	40f482b3          	sub	t0,s1,a5
    2308:	40e30633          	sub	a2,t1,a4
    230c:	00c33533          	sltu	a0,t1,a2
    2310:	40a282b3          	sub	t0,t0,a0
    2314:	00800537          	lui	a0,0x800
    2318:	00a2f533          	and	a0,t0,a0
    231c:	40050563          	beqz	a0,2726 <__subdf3+0x71a>
    2320:	40670633          	sub	a2,a4,t1
    2324:	8f85                	sub	a5,a5,s1
    2326:	00c73733          	sltu	a4,a4,a2
    232a:	40e784b3          	sub	s1,a5,a4
    232e:	85b6                	mv	a1,a3
    2330:	b3e5                	j	2118 <__subdf3+0x10c>
    2332:	12540363          	beq	s0,t0,2458 <__subdf3+0x44c>
    2336:	03800613          	li	a2,56
    233a:	4685                	li	a3,1
    233c:	e87649e3          	blt	a2,t2,21ce <__subdf3+0x1c2>
    2340:	008006b7          	lui	a3,0x800
    2344:	8fd5                	or	a5,a5,a3
    2346:	b585                	j	21a6 <__subdf3+0x19a>
    2348:	0015f713          	andi	a4,a1,1
    234c:	7ff00413          	li	s0,2047
    2350:	4781                	li	a5,0
    2352:	4301                	li	t1,0
    2354:	bd09                	j	2166 <__subdf3+0x15a>
    2356:	00767513          	andi	a0,a2,7
    235a:	dc0512e3          	bnez	a0,211e <__subdf3+0x112>
    235e:	a0ed                	j	2448 <__subdf3+0x43c>
    2360:	8532                	mv	a0,a2
    2362:	c22e                	sw	a1,4(sp)
    2364:	c032                	sw	a2,0(sp)
    2366:	1fe010ef          	jal	ra,3564 <__clzsi2>
    236a:	01850693          	addi	a3,a0,24 # 800018 <_data_lma+0x7fc6a0>
    236e:	47fd                	li	a5,31
    2370:	4602                	lw	a2,0(sp)
    2372:	4592                	lw	a1,4(sp)
    2374:	d6d7d4e3          	bge	a5,a3,20dc <__subdf3+0xd0>
    2378:	1561                	addi	a0,a0,-8
    237a:	00a61533          	sll	a0,a2,a0
    237e:	1886c363          	blt	a3,s0,2504 <__subdf3+0x4f8>
    2382:	40868633          	sub	a2,a3,s0
    2386:	00160693          	addi	a3,a2,1
    238a:	3ad7de63          	bge	a5,a3,2746 <__subdf3+0x73a>
    238e:	1605                	addi	a2,a2,-31
    2390:	02000793          	li	a5,32
    2394:	00c55633          	srl	a2,a0,a2
    2398:	00f68a63          	beq	a3,a5,23ac <__subdf3+0x3a0>
    239c:	04000793          	li	a5,64
    23a0:	8f95                	sub	a5,a5,a3
    23a2:	00f517b3          	sll	a5,a0,a5
    23a6:	00f037b3          	snez	a5,a5
    23aa:	8e5d                	or	a2,a2,a5
    23ac:	00767513          	andi	a0,a2,7
    23b0:	4401                	li	s0,0
    23b2:	d60516e3          	bnez	a0,211e <__subdf3+0x112>
    23b6:	a849                	j	2448 <__subdf3+0x43c>
    23b8:	00365313          	srli	t1,a2,0x3
    23bc:	01d49793          	slli	a5,s1,0x1d
    23c0:	7ff00713          	li	a4,2047
    23c4:	0067e333          	or	t1,a5,t1
    23c8:	0034d793          	srli	a5,s1,0x3
    23cc:	e6e405e3          	beq	s0,a4,2236 <__subdf3+0x22a>
    23d0:	07b2                	slli	a5,a5,0xc
    23d2:	83b1                	srli	a5,a5,0xc
    23d4:	7ff47413          	andi	s0,s0,2047
    23d8:	0015f713          	andi	a4,a1,1
    23dc:	b369                	j	2166 <__subdf3+0x15a>
    23de:	7ff00393          	li	t2,2047
    23e2:	4582                	lw	a1,0(sp)
    23e4:	8dc5                	or	a1,a1,s1
    23e6:	edf9                	bnez	a1,24c4 <__subdf3+0x4b8>
    23e8:	84be                	mv	s1,a5
    23ea:	c03a                	sw	a4,0(sp)
    23ec:	85b6                	mv	a1,a3
    23ee:	4782                	lw	a5,0(sp)
    23f0:	841e                	mv	s0,t2
    23f2:	0037d313          	srli	t1,a5,0x3
    23f6:	b7d9                	j	23bc <__subdf3+0x3b0>
    23f8:	ff800737          	lui	a4,0xff800
    23fc:	177d                	addi	a4,a4,-1 # ff7fffff <_eusrstack+0xdf7fefff>
    23fe:	8c15                	sub	s0,s0,a3
    2400:	00e574b3          	and	s1,a0,a4
    2404:	bb11                	j	2118 <__subdf3+0x10c>
    2406:	00140693          	addi	a3,s0,1
    240a:	7fe6f313          	andi	t1,a3,2046
    240e:	10031463          	bnez	t1,2516 <__subdf3+0x50a>
    2412:	00351313          	slli	t1,a0,0x3
    2416:	0064e6b3          	or	a3,s1,t1
    241a:	e815                	bnez	s0,244e <__subdf3+0x442>
    241c:	28068863          	beqz	a3,26ac <__subdf3+0x6a0>
    2420:	00e7e6b3          	or	a3,a5,a4
    2424:	28068e63          	beqz	a3,26c0 <__subdf3+0x6b4>
    2428:	00e30633          	add	a2,t1,a4
    242c:	97a6                	add	a5,a5,s1
    242e:	00663733          	sltu	a4,a2,t1
    2432:	00e784b3          	add	s1,a5,a4
    2436:	00800537          	lui	a0,0x800
    243a:	8d65                	and	a0,a0,s1
    243c:	c511                	beqz	a0,2448 <__subdf3+0x43c>
    243e:	ff8007b7          	lui	a5,0xff800
    2442:	17fd                	addi	a5,a5,-1 # ff7fffff <_eusrstack+0xdf7fefff>
    2444:	8cfd                	and	s1,s1,a5
    2446:	4405                	li	s0,1
    2448:	c032                	sw	a2,0(sp)
    244a:	83a2                	mv	t2,s0
    244c:	b74d                	j	23ee <__subdf3+0x3e2>
    244e:	2c068363          	beqz	a3,2714 <__subdf3+0x708>
    2452:	8fd9                	or	a5,a5,a4
    2454:	de0795e3          	bnez	a5,223e <__subdf3+0x232>
    2458:	00351313          	slli	t1,a0,0x3
    245c:	01d49793          	slli	a5,s1,0x1d
    2460:	00335313          	srli	t1,t1,0x3
    2464:	00f36333          	or	t1,t1,a5
    2468:	0034d793          	srli	a5,s1,0x3
    246c:	b3e9                	j	2236 <__subdf3+0x22a>
    246e:	4302                	lw	t1,0(sp)
    2470:	40f48533          	sub	a0,s1,a5
    2474:	40e30633          	sub	a2,t1,a4
    2478:	00c33333          	sltu	t1,t1,a2
    247c:	40650533          	sub	a0,a0,t1
    2480:	00800337          	lui	t1,0x800
    2484:	00657333          	and	t1,a0,t1
    2488:	0a031d63          	bnez	t1,2542 <__subdf3+0x536>
    248c:	00a66333          	or	t1,a2,a0
    2490:	84aa                	mv	s1,a0
    2492:	c2031ae3          	bnez	t1,20c6 <__subdf3+0xba>
    2496:	4701                	li	a4,0
    2498:	4401                	li	s0,0
    249a:	4781                	li	a5,0
    249c:	b1e9                	j	2166 <__subdf3+0x15a>
    249e:	fe038693          	addi	a3,t2,-32
    24a2:	02000613          	li	a2,32
    24a6:	00d7d6b3          	srl	a3,a5,a3
    24aa:	00c38963          	beq	t2,a2,24bc <__subdf3+0x4b0>
    24ae:	04000613          	li	a2,64
    24b2:	40760633          	sub	a2,a2,t2
    24b6:	00c797b3          	sll	a5,a5,a2
    24ba:	8f5d                	or	a4,a4,a5
    24bc:	00e03633          	snez	a2,a4
    24c0:	8e55                	or	a2,a2,a3
    24c2:	b6e5                	j	20aa <__subdf3+0x9e>
    24c4:	fff38513          	addi	a0,t2,-1
    24c8:	18050e63          	beqz	a0,2664 <__subdf3+0x658>
    24cc:	7ff00593          	li	a1,2047
    24d0:	20b38363          	beq	t2,a1,26d6 <__subdf3+0x6ca>
    24d4:	03800613          	li	a2,56
    24d8:	85b6                	mv	a1,a3
    24da:	0ea65b63          	bge	a2,a0,25d0 <__subdf3+0x5c4>
    24de:	4605                	li	a2,1
    24e0:	40c70633          	sub	a2,a4,a2
    24e4:	00c73733          	sltu	a4,a4,a2
    24e8:	40e784b3          	sub	s1,a5,a4
    24ec:	841a                	mv	s0,t1
    24ee:	b6e1                	j	20b6 <__subdf3+0xaa>
    24f0:	00361313          	slli	t1,a2,0x3
    24f4:	01d79713          	slli	a4,a5,0x1d
    24f8:	00335313          	srli	t1,t1,0x3
    24fc:	00e36333          	or	t1,t1,a4
    2500:	838d                	srli	a5,a5,0x3
    2502:	bb15                	j	2236 <__subdf3+0x22a>
    2504:	ff8007b7          	lui	a5,0xff800
    2508:	17fd                	addi	a5,a5,-1 # ff7fffff <_eusrstack+0xdf7fefff>
    250a:	8fe9                	and	a5,a5,a0
    250c:	01d79313          	slli	t1,a5,0x1d
    2510:	8c15                	sub	s0,s0,a3
    2512:	838d                	srli	a5,a5,0x3
    2514:	bd75                	j	23d0 <__subdf3+0x3c4>
    2516:	7ff00613          	li	a2,2047
    251a:	e2c687e3          	beq	a3,a2,2348 <__subdf3+0x33c>
    251e:	4602                	lw	a2,0(sp)
    2520:	97a6                	add	a5,a5,s1
    2522:	8436                	mv	s0,a3
    2524:	00e60533          	add	a0,a2,a4
    2528:	00c53733          	sltu	a4,a0,a2
    252c:	97ba                	add	a5,a5,a4
    252e:	8105                	srli	a0,a0,0x1
    2530:	01f79613          	slli	a2,a5,0x1f
    2534:	8e49                	or	a2,a2,a0
    2536:	891d                	andi	a0,a0,7
    2538:	0017d493          	srli	s1,a5,0x1
    253c:	be0511e3          	bnez	a0,211e <__subdf3+0x112>
    2540:	b721                	j	2448 <__subdf3+0x43c>
    2542:	4602                	lw	a2,0(sp)
    2544:	8f85                	sub	a5,a5,s1
    2546:	85b6                	mv	a1,a3
    2548:	40c70633          	sub	a2,a4,a2
    254c:	00c73733          	sltu	a4,a4,a2
    2550:	40e784b3          	sub	s1,a5,a4
    2554:	be8d                	j	20c6 <__subdf3+0xba>
    2556:	12029f63          	bnez	t0,2694 <__subdf3+0x688>
    255a:	1c031c63          	bnez	t1,2732 <__subdf3+0x726>
    255e:	4701                	li	a4,0
    2560:	7ff00413          	li	s0,2047
    2564:	000807b7          	lui	a5,0x80
    2568:	befd                	j	2166 <__subdf3+0x15a>
    256a:	4682                	lw	a3,0(sp)
    256c:	97a6                	add	a5,a5,s1
    256e:	4405                	li	s0,1
    2570:	00e68633          	add	a2,a3,a4
    2574:	00d63733          	sltu	a4,a2,a3
    2578:	00e784b3          	add	s1,a5,a4
    257c:	008007b7          	lui	a5,0x800
    2580:	8fe5                	and	a5,a5,s1
    2582:	dc078ae3          	beqz	a5,2356 <__subdf3+0x34a>
    2586:	4409                	li	s0,2
    2588:	b19d                	j	21ee <__subdf3+0x1e2>
    258a:	4682                	lw	a3,0(sp)
    258c:	40f487b3          	sub	a5,s1,a5
    2590:	4405                	li	s0,1
    2592:	40e68633          	sub	a2,a3,a4
    2596:	00c6b733          	sltu	a4,a3,a2
    259a:	40e784b3          	sub	s1,a5,a4
    259e:	be21                	j	20b6 <__subdf3+0xaa>
    25a0:	050e                	slli	a0,a0,0x3
    25a2:	01d49313          	slli	t1,s1,0x1d
    25a6:	810d                	srli	a0,a0,0x3
    25a8:	00a36333          	or	t1,t1,a0
    25ac:	0034d793          	srli	a5,s1,0x3
    25b0:	b159                	j	2236 <__subdf3+0x22a>
    25b2:	d20386e3          	beqz	t2,22de <__subdf3+0x2d2>
    25b6:	40830533          	sub	a0,t1,s0
    25ba:	83aa                	mv	t2,a0
    25bc:	e20403e3          	beqz	s0,23e2 <__subdf3+0x3d6>
    25c0:	03800613          	li	a2,56
    25c4:	18a64663          	blt	a2,a0,2750 <__subdf3+0x744>
    25c8:	00800637          	lui	a2,0x800
    25cc:	8cd1                	or	s1,s1,a2
    25ce:	85b6                	mv	a1,a3
    25d0:	46fd                	li	a3,31
    25d2:	04a6c863          	blt	a3,a0,2622 <__subdf3+0x616>
    25d6:	4402                	lw	s0,0(sp)
    25d8:	02000693          	li	a3,32
    25dc:	8e89                	sub	a3,a3,a0
    25de:	00d49633          	sll	a2,s1,a3
    25e2:	00a452b3          	srl	t0,s0,a0
    25e6:	00d416b3          	sll	a3,s0,a3
    25ea:	00566633          	or	a2,a2,t0
    25ee:	00d036b3          	snez	a3,a3
    25f2:	00a4d533          	srl	a0,s1,a0
    25f6:	8e55                	or	a2,a2,a3
    25f8:	8f89                	sub	a5,a5,a0
    25fa:	b5dd                	j	24e0 <__subdf3+0x4d4>
    25fc:	fe038613          	addi	a2,t2,-32
    2600:	02000693          	li	a3,32
    2604:	00c7d633          	srl	a2,a5,a2
    2608:	00d38963          	beq	t2,a3,261a <__subdf3+0x60e>
    260c:	04000693          	li	a3,64
    2610:	407686b3          	sub	a3,a3,t2
    2614:	00d797b3          	sll	a5,a5,a3
    2618:	8f5d                	or	a4,a4,a5
    261a:	00e036b3          	snez	a3,a4
    261e:	8ed1                	or	a3,a3,a2
    2620:	b67d                	j	21ce <__subdf3+0x1c2>
    2622:	fe050693          	addi	a3,a0,-32 # 7fffe0 <_data_lma+0x7fc668>
    2626:	02000613          	li	a2,32
    262a:	00d4d6b3          	srl	a3,s1,a3
    262e:	00c50a63          	beq	a0,a2,2642 <__subdf3+0x636>
    2632:	04000613          	li	a2,64
    2636:	8e09                	sub	a2,a2,a0
    2638:	4502                	lw	a0,0(sp)
    263a:	00c49633          	sll	a2,s1,a2
    263e:	8e49                	or	a2,a2,a0
    2640:	c032                	sw	a2,0(sp)
    2642:	4602                	lw	a2,0(sp)
    2644:	00c03633          	snez	a2,a2
    2648:	8e55                	or	a2,a2,a3
    264a:	bd59                	j	24e0 <__subdf3+0x4d4>
    264c:	e40305e3          	beqz	t1,2496 <__subdf3+0x48a>
    2650:	00361713          	slli	a4,a2,0x3
    2654:	01d79313          	slli	t1,a5,0x1d
    2658:	830d                	srli	a4,a4,0x3
    265a:	00e36333          	or	t1,t1,a4
    265e:	838d                	srli	a5,a5,0x3
    2660:	85b6                	mv	a1,a3
    2662:	b3bd                	j	23d0 <__subdf3+0x3c4>
    2664:	4602                	lw	a2,0(sp)
    2666:	8f85                	sub	a5,a5,s1
    2668:	85b6                	mv	a1,a3
    266a:	40c70633          	sub	a2,a4,a2
    266e:	00c73733          	sltu	a4,a4,a2
    2672:	40e784b3          	sub	s1,a5,a4
    2676:	4405                	li	s0,1
    2678:	bc3d                	j	20b6 <__subdf3+0xaa>
    267a:	00351793          	slli	a5,a0,0x3
    267e:	838d                	srli	a5,a5,0x3
    2680:	01d49313          	slli	t1,s1,0x1d
    2684:	00f36333          	or	t1,t1,a5
    2688:	0034d793          	srli	a5,s1,0x3
    268c:	b391                	j	23d0 <__subdf3+0x3c4>
    268e:	84be                	mv	s1,a5
    2690:	c03a                	sw	a4,0(sp)
    2692:	bbb1                	j	23ee <__subdf3+0x3e2>
    2694:	ba0315e3          	bnez	t1,223e <__subdf3+0x232>
    2698:	00351793          	slli	a5,a0,0x3
    269c:	838d                	srli	a5,a5,0x3
    269e:	01d49313          	slli	t1,s1,0x1d
    26a2:	00f36333          	or	t1,t1,a5
    26a6:	0034d793          	srli	a5,s1,0x3
    26aa:	b671                	j	2236 <__subdf3+0x22a>
    26ac:	00361313          	slli	t1,a2,0x3
    26b0:	01d79713          	slli	a4,a5,0x1d
    26b4:	00335313          	srli	t1,t1,0x3
    26b8:	00e36333          	or	t1,t1,a4
    26bc:	838d                	srli	a5,a5,0x3
    26be:	bb09                	j	23d0 <__subdf3+0x3c4>
    26c0:	00351313          	slli	t1,a0,0x3
    26c4:	01d49793          	slli	a5,s1,0x1d
    26c8:	00335313          	srli	t1,t1,0x3
    26cc:	00f36333          	or	t1,t1,a5
    26d0:	0034d793          	srli	a5,s1,0x3
    26d4:	b9f5                	j	23d0 <__subdf3+0x3c4>
    26d6:	00361713          	slli	a4,a2,0x3
    26da:	01d79313          	slli	t1,a5,0x1d
    26de:	830d                	srli	a4,a4,0x3
    26e0:	00e36333          	or	t1,t1,a4
    26e4:	838d                	srli	a5,a5,0x3
    26e6:	85b6                	mv	a1,a3
    26e8:	b6b9                	j	2236 <__subdf3+0x22a>
    26ea:	fe050693          	addi	a3,a0,-32
    26ee:	02000293          	li	t0,32
    26f2:	00d4d633          	srl	a2,s1,a3
    26f6:	00550a63          	beq	a0,t0,270a <__subdf3+0x6fe>
    26fa:	04000693          	li	a3,64
    26fe:	8e89                	sub	a3,a3,a0
    2700:	4502                	lw	a0,0(sp)
    2702:	00d496b3          	sll	a3,s1,a3
    2706:	8ec9                	or	a3,a3,a0
    2708:	c036                	sw	a3,0(sp)
    270a:	4682                	lw	a3,0(sp)
    270c:	00d036b3          	snez	a3,a3
    2710:	8ed1                	or	a3,a3,a2
    2712:	be75                	j	22ce <__subdf3+0x2c2>
    2714:	00361713          	slli	a4,a2,0x3
    2718:	01d79313          	slli	t1,a5,0x1d
    271c:	830d                	srli	a4,a4,0x3
    271e:	00e36333          	or	t1,t1,a4
    2722:	838d                	srli	a5,a5,0x3
    2724:	be09                	j	2236 <__subdf3+0x22a>
    2726:	00566333          	or	t1,a2,t0
    272a:	8496                	mv	s1,t0
    272c:	d0031ee3          	bnez	t1,2448 <__subdf3+0x43c>
    2730:	b39d                	j	2496 <__subdf3+0x48a>
    2732:	00361713          	slli	a4,a2,0x3
    2736:	01d79313          	slli	t1,a5,0x1d
    273a:	830d                	srli	a4,a4,0x3
    273c:	00676333          	or	t1,a4,t1
    2740:	838d                	srli	a5,a5,0x3
    2742:	85b6                	mv	a1,a3
    2744:	bccd                	j	2236 <__subdf3+0x22a>
    2746:	02000793          	li	a5,32
    274a:	8f95                	sub	a5,a5,a3
    274c:	4701                	li	a4,0
    274e:	ba6d                	j	2108 <__subdf3+0xfc>
    2750:	85b6                	mv	a1,a3
    2752:	4605                	li	a2,1
    2754:	b371                	j	24e0 <__subdf3+0x4d4>
    2756:	ca0388e3          	beqz	t2,2406 <__subdf3+0x3fa>
    275a:	40830533          	sub	a0,t1,s0
    275e:	e019                	bnez	s0,2764 <__subdf3+0x758>
    2760:	83aa                	mv	t2,a0
    2762:	b605                	j	2282 <__subdf3+0x276>
    2764:	03800613          	li	a2,56
    2768:	4685                	li	a3,1
    276a:	b6a642e3          	blt	a2,a0,22ce <__subdf3+0x2c2>
    276e:	008006b7          	lui	a3,0x800
    2772:	8cd5                	or	s1,s1,a3
    2774:	be05                	j	22a4 <__subdf3+0x298>

00002776 <__floatsidf>:
    2776:	1151                	addi	sp,sp,-12
    2778:	c406                	sw	ra,8(sp)
    277a:	c222                	sw	s0,4(sp)
    277c:	c026                	sw	s1,0(sp)
    277e:	cd15                	beqz	a0,27ba <__floatsidf+0x44>
    2780:	41f55713          	srai	a4,a0,0x1f
    2784:	00a74433          	xor	s0,a4,a0
    2788:	8c19                	sub	s0,s0,a4
    278a:	87aa                	mv	a5,a0
    278c:	8522                	mv	a0,s0
    278e:	01f7d493          	srli	s1,a5,0x1f
    2792:	5d3000ef          	jal	ra,3564 <__clzsi2>
    2796:	41e00793          	li	a5,1054
    279a:	8f89                	sub	a5,a5,a0
    279c:	4729                	li	a4,10
    279e:	7ff7f793          	andi	a5,a5,2047
    27a2:	02a74b63          	blt	a4,a0,27d8 <__floatsidf+0x62>
    27a6:	472d                	li	a4,11
    27a8:	8f09                	sub	a4,a4,a0
    27aa:	00e45733          	srl	a4,s0,a4
    27ae:	0555                	addi	a0,a0,21
    27b0:	0732                	slli	a4,a4,0xc
    27b2:	00a41433          	sll	s0,s0,a0
    27b6:	8331                	srli	a4,a4,0xc
    27b8:	a029                	j	27c2 <__floatsidf+0x4c>
    27ba:	4481                	li	s1,0
    27bc:	4781                	li	a5,0
    27be:	4701                	li	a4,0
    27c0:	4401                	li	s0,0
    27c2:	40a2                	lw	ra,8(sp)
    27c4:	8522                	mv	a0,s0
    27c6:	07d2                	slli	a5,a5,0x14
    27c8:	4412                	lw	s0,4(sp)
    27ca:	04fe                	slli	s1,s1,0x1f
    27cc:	8fd9                	or	a5,a5,a4
    27ce:	8fc5                	or	a5,a5,s1
    27d0:	85be                	mv	a1,a5
    27d2:	4482                	lw	s1,0(sp)
    27d4:	0131                	addi	sp,sp,12
    27d6:	8082                	ret
    27d8:	1555                	addi	a0,a0,-11
    27da:	00a41733          	sll	a4,s0,a0
    27de:	0732                	slli	a4,a4,0xc
    27e0:	8331                	srli	a4,a4,0xc
    27e2:	4401                	li	s0,0
    27e4:	bff9                	j	27c2 <__floatsidf+0x4c>

000027e6 <__addsf3>:
    27e6:	1141                	addi	sp,sp,-16
    27e8:	00800737          	lui	a4,0x800
    27ec:	177d                	addi	a4,a4,-1 # 7fffff <_data_lma+0x7fc687>
    27ee:	0175d693          	srli	a3,a1,0x17
    27f2:	c226                	sw	s1,4(sp)
    27f4:	01755493          	srli	s1,a0,0x17
    27f8:	00a777b3          	and	a5,a4,a0
    27fc:	c422                	sw	s0,8(sp)
    27fe:	8f6d                	and	a4,a4,a1
    2800:	0ff4f493          	zext.b	s1,s1
    2804:	01f55413          	srli	s0,a0,0x1f
    2808:	c606                	sw	ra,12(sp)
    280a:	0ff6f513          	zext.b	a0,a3
    280e:	81fd                	srli	a1,a1,0x1f
    2810:	078e                	slli	a5,a5,0x3
    2812:	070e                	slli	a4,a4,0x3
    2814:	40a48633          	sub	a2,s1,a0
    2818:	04b40163          	beq	s0,a1,285a <__addsf3+0x74>
    281c:	00c05f63          	blez	a2,283a <__addsf3+0x54>
    2820:	ed31                	bnez	a0,287c <__addsf3+0x96>
    2822:	10070e63          	beqz	a4,293e <__addsf3+0x158>
    2826:	fff60693          	addi	a3,a2,-1 # 7fffff <_data_lma+0x7fc687>
    282a:	2a068b63          	beqz	a3,2ae0 <__addsf3+0x2fa>
    282e:	0ff00593          	li	a1,255
    2832:	16b60a63          	beq	a2,a1,29a6 <__addsf3+0x1c0>
    2836:	8636                	mv	a2,a3
    2838:	a889                	j	288a <__addsf3+0xa4>
    283a:	c261                	beqz	a2,28fa <__addsf3+0x114>
    283c:	40950633          	sub	a2,a0,s1
    2840:	1c049963          	bnez	s1,2a12 <__addsf3+0x22c>
    2844:	cbfd                	beqz	a5,293a <__addsf3+0x154>
    2846:	fff60693          	addi	a3,a2,-1
    284a:	2c068563          	beqz	a3,2b14 <__addsf3+0x32e>
    284e:	0ff00313          	li	t1,255
    2852:	14660863          	beq	a2,t1,29a2 <__addsf3+0x1bc>
    2856:	8636                	mv	a2,a3
    2858:	a2e1                	j	2a20 <__addsf3+0x23a>
    285a:	86a2                	mv	a3,s0
    285c:	14c05763          	blez	a2,29aa <__addsf3+0x1c4>
    2860:	c171                	beqz	a0,2924 <__addsf3+0x13e>
    2862:	0ff00593          	li	a1,255
    2866:	14b48063          	beq	s1,a1,29a6 <__addsf3+0x1c0>
    286a:	040005b7          	lui	a1,0x4000
    286e:	8f4d                	or	a4,a4,a1
    2870:	45ed                	li	a1,27
    2872:	1ec5d663          	bge	a1,a2,2a5e <__addsf3+0x278>
    2876:	0785                	addi	a5,a5,1 # 800001 <_data_lma+0x7fc689>
    2878:	8626                	mv	a2,s1
    287a:	a089                	j	28bc <__addsf3+0xd6>
    287c:	0ff00693          	li	a3,255
    2880:	12d48363          	beq	s1,a3,29a6 <__addsf3+0x1c0>
    2884:	040006b7          	lui	a3,0x4000
    2888:	8f55                	or	a4,a4,a3
    288a:	45ed                	li	a1,27
    288c:	4685                	li	a3,1
    288e:	00c5cd63          	blt	a1,a2,28a8 <__addsf3+0xc2>
    2892:	02000693          	li	a3,32
    2896:	8e91                	sub	a3,a3,a2
    2898:	00d716b3          	sll	a3,a4,a3
    289c:	00c75633          	srl	a2,a4,a2
    28a0:	00d03733          	snez	a4,a3
    28a4:	00e666b3          	or	a3,a2,a4
    28a8:	8f95                	sub	a5,a5,a3
    28aa:	04000737          	lui	a4,0x4000
    28ae:	00e7f6b3          	and	a3,a5,a4
    28b2:	e6d5                	bnez	a3,295e <__addsf3+0x178>
    28b4:	0077f713          	andi	a4,a5,7
    28b8:	8626                	mv	a2,s1
    28ba:	c351                	beqz	a4,293e <__addsf3+0x158>
    28bc:	00f7f713          	andi	a4,a5,15
    28c0:	4691                	li	a3,4
    28c2:	00d70363          	beq	a4,a3,28c8 <__addsf3+0xe2>
    28c6:	0791                	addi	a5,a5,4
    28c8:	04000737          	lui	a4,0x4000
    28cc:	8f7d                	and	a4,a4,a5
    28ce:	cb25                	beqz	a4,293e <__addsf3+0x158>
    28d0:	00160513          	addi	a0,a2,1
    28d4:	0ff00713          	li	a4,255
    28d8:	86a2                	mv	a3,s0
    28da:	06e50e63          	beq	a0,a4,2956 <__addsf3+0x170>
    28de:	00679713          	slli	a4,a5,0x6
    28e2:	0ff57513          	zext.b	a0,a0
    28e6:	8325                	srli	a4,a4,0x9
    28e8:	40b2                	lw	ra,12(sp)
    28ea:	4422                	lw	s0,8(sp)
    28ec:	055e                	slli	a0,a0,0x17
    28ee:	8d59                	or	a0,a0,a4
    28f0:	06fe                	slli	a3,a3,0x1f
    28f2:	4492                	lw	s1,4(sp)
    28f4:	8d55                	or	a0,a0,a3
    28f6:	0141                	addi	sp,sp,16
    28f8:	8082                	ret
    28fa:	00148693          	addi	a3,s1,1 # 800001 <_data_lma+0x7fc689>
    28fe:	0fe6f693          	andi	a3,a3,254
    2902:	14069363          	bnez	a3,2a48 <__addsf3+0x262>
    2906:	e8d9                	bnez	s1,299c <__addsf3+0x1b6>
    2908:	20078263          	beqz	a5,2b0c <__addsf3+0x326>
    290c:	cb75                	beqz	a4,2a00 <__addsf3+0x21a>
    290e:	40e78533          	sub	a0,a5,a4
    2912:	040006b7          	lui	a3,0x4000
    2916:	8ee9                	and	a3,a3,a0
    2918:	22068263          	beqz	a3,2b3c <__addsf3+0x356>
    291c:	40f707b3          	sub	a5,a4,a5
    2920:	842e                	mv	s0,a1
    2922:	a88d                	j	2994 <__addsf3+0x1ae>
    2924:	cf09                	beqz	a4,293e <__addsf3+0x158>
    2926:	fff60593          	addi	a1,a2,-1
    292a:	1a058363          	beqz	a1,2ad0 <__addsf3+0x2ea>
    292e:	0ff00513          	li	a0,255
    2932:	06a60a63          	beq	a2,a0,29a6 <__addsf3+0x1c0>
    2936:	862e                	mv	a2,a1
    2938:	bf25                	j	2870 <__addsf3+0x8a>
    293a:	842e                	mv	s0,a1
    293c:	87ba                	mv	a5,a4
    293e:	0ff00713          	li	a4,255
    2942:	838d                	srli	a5,a5,0x3
    2944:	0ce61063          	bne	a2,a4,2a04 <__addsf3+0x21e>
    2948:	cfc9                	beqz	a5,29e2 <__addsf3+0x1fc>
    294a:	4681                	li	a3,0
    294c:	0ff00513          	li	a0,255
    2950:	00400737          	lui	a4,0x400
    2954:	bf51                	j	28e8 <__addsf3+0x102>
    2956:	0ff00513          	li	a0,255
    295a:	4701                	li	a4,0
    295c:	b771                	j	28e8 <__addsf3+0x102>
    295e:	177d                	addi	a4,a4,-1 # 3fffff <_data_lma+0x3fc687>
    2960:	00e7f6b3          	and	a3,a5,a4
    2964:	8536                	mv	a0,a3
    2966:	c036                	sw	a3,0(sp)
    2968:	3fd000ef          	jal	ra,3564 <__clzsi2>
    296c:	4682                	lw	a3,0(sp)
    296e:	156d                	addi	a0,a0,-5
    2970:	00a696b3          	sll	a3,a3,a0
    2974:	06954063          	blt	a0,s1,29d4 <__addsf3+0x1ee>
    2978:	8d05                	sub	a0,a0,s1
    297a:	00150793          	addi	a5,a0,1
    297e:	02000713          	li	a4,32
    2982:	8f1d                	sub	a4,a4,a5
    2984:	00e69733          	sll	a4,a3,a4
    2988:	00f6d7b3          	srl	a5,a3,a5
    298c:	00e03733          	snez	a4,a4
    2990:	8fd9                	or	a5,a5,a4
    2992:	4601                	li	a2,0
    2994:	0077f713          	andi	a4,a5,7
    2998:	f315                	bnez	a4,28bc <__addsf3+0xd6>
    299a:	b73d                	j	28c8 <__addsf3+0xe2>
    299c:	14079763          	bnez	a5,2aea <__addsf3+0x304>
    29a0:	d74d                	beqz	a4,294a <__addsf3+0x164>
    29a2:	842e                	mv	s0,a1
    29a4:	87ba                	mv	a5,a4
    29a6:	838d                	srli	a5,a5,0x3
    29a8:	b745                	j	2948 <__addsf3+0x162>
    29aa:	c229                	beqz	a2,29ec <__addsf3+0x206>
    29ac:	40950633          	sub	a2,a0,s1
    29b0:	e4fd                	bnez	s1,2a9e <__addsf3+0x2b8>
    29b2:	d7c9                	beqz	a5,293c <__addsf3+0x156>
    29b4:	fff60593          	addi	a1,a2,-1
    29b8:	10058c63          	beqz	a1,2ad0 <__addsf3+0x2ea>
    29bc:	0ff00313          	li	t1,255
    29c0:	fe6602e3          	beq	a2,t1,29a4 <__addsf3+0x1be>
    29c4:	862e                	mv	a2,a1
    29c6:	45ed                	li	a1,27
    29c8:	12c5d563          	bge	a1,a2,2af2 <__addsf3+0x30c>
    29cc:	00170793          	addi	a5,a4,1
    29d0:	862a                	mv	a2,a0
    29d2:	b5ed                	j	28bc <__addsf3+0xd6>
    29d4:	fc0007b7          	lui	a5,0xfc000
    29d8:	17fd                	addi	a5,a5,-1 # fbffffff <_eusrstack+0xdbffefff>
    29da:	40a48633          	sub	a2,s1,a0
    29de:	8ff5                	and	a5,a5,a3
    29e0:	bf55                	j	2994 <__addsf3+0x1ae>
    29e2:	86a2                	mv	a3,s0
    29e4:	0ff00513          	li	a0,255
    29e8:	4701                	li	a4,0
    29ea:	bdfd                	j	28e8 <__addsf3+0x102>
    29ec:	00148613          	addi	a2,s1,1
    29f0:	0fe67593          	andi	a1,a2,254
    29f4:	edcd                	bnez	a1,2aae <__addsf3+0x2c8>
    29f6:	e8e5                	bnez	s1,2ae6 <__addsf3+0x300>
    29f8:	12078363          	beqz	a5,2b1e <__addsf3+0x338>
    29fc:	12071363          	bnez	a4,2b22 <__addsf3+0x33c>
    2a00:	838d                	srli	a5,a5,0x3
    2a02:	4601                	li	a2,0
    2a04:	07a6                	slli	a5,a5,0x9
    2a06:	0097d713          	srli	a4,a5,0x9
    2a0a:	0ff67513          	zext.b	a0,a2
    2a0e:	86a2                	mv	a3,s0
    2a10:	bde1                	j	28e8 <__addsf3+0x102>
    2a12:	0ff00693          	li	a3,255
    2a16:	f8d506e3          	beq	a0,a3,29a2 <__addsf3+0x1bc>
    2a1a:	040006b7          	lui	a3,0x4000
    2a1e:	8fd5                	or	a5,a5,a3
    2a20:	436d                	li	t1,27
    2a22:	4685                	li	a3,1
    2a24:	00c34d63          	blt	t1,a2,2a3e <__addsf3+0x258>
    2a28:	02000693          	li	a3,32
    2a2c:	8e91                	sub	a3,a3,a2
    2a2e:	00d796b3          	sll	a3,a5,a3
    2a32:	00c7d633          	srl	a2,a5,a2
    2a36:	00d037b3          	snez	a5,a3
    2a3a:	00f666b3          	or	a3,a2,a5
    2a3e:	40d707b3          	sub	a5,a4,a3
    2a42:	84aa                	mv	s1,a0
    2a44:	842e                	mv	s0,a1
    2a46:	b595                	j	28aa <__addsf3+0xc4>
    2a48:	40e786b3          	sub	a3,a5,a4
    2a4c:	04000637          	lui	a2,0x4000
    2a50:	8e75                	and	a2,a2,a3
    2a52:	ea3d                	bnez	a2,2ac8 <__addsf3+0x2e2>
    2a54:	fa81                	bnez	a3,2964 <__addsf3+0x17e>
    2a56:	4681                	li	a3,0
    2a58:	4501                	li	a0,0
    2a5a:	4701                	li	a4,0
    2a5c:	b571                	j	28e8 <__addsf3+0x102>
    2a5e:	02000593          	li	a1,32
    2a62:	8d91                	sub	a1,a1,a2
    2a64:	00b715b3          	sll	a1,a4,a1
    2a68:	00c75733          	srl	a4,a4,a2
    2a6c:	00b03633          	snez	a2,a1
    2a70:	8f51                	or	a4,a4,a2
    2a72:	97ba                	add	a5,a5,a4
    2a74:	04000737          	lui	a4,0x4000
    2a78:	8f7d                	and	a4,a4,a5
    2a7a:	e2070de3          	beqz	a4,28b4 <__addsf3+0xce>
    2a7e:	00148613          	addi	a2,s1,1
    2a82:	0ff00513          	li	a0,255
    2a86:	4701                	li	a4,0
    2a88:	e6a600e3          	beq	a2,a0,28e8 <__addsf3+0x102>
    2a8c:	7e0006b7          	lui	a3,0x7e000
    2a90:	0017d713          	srli	a4,a5,0x1
    2a94:	16fd                	addi	a3,a3,-1 # 7dffffff <_eusrstack+0x5dffefff>
    2a96:	8b85                	andi	a5,a5,1
    2a98:	8f75                	and	a4,a4,a3
    2a9a:	8fd9                	or	a5,a5,a4
    2a9c:	bde5                	j	2994 <__addsf3+0x1ae>
    2a9e:	0ff00593          	li	a1,255
    2aa2:	f0b501e3          	beq	a0,a1,29a4 <__addsf3+0x1be>
    2aa6:	040005b7          	lui	a1,0x4000
    2aaa:	8fcd                	or	a5,a5,a1
    2aac:	bf29                	j	29c6 <__addsf3+0x1e0>
    2aae:	0ff00593          	li	a1,255
    2ab2:	eab602e3          	beq	a2,a1,2956 <__addsf3+0x170>
    2ab6:	973e                	add	a4,a4,a5
    2ab8:	00175793          	srli	a5,a4,0x1
    2abc:	0077f693          	andi	a3,a5,7
    2ac0:	de069ee3          	bnez	a3,28bc <__addsf3+0xd6>
    2ac4:	838d                	srli	a5,a5,0x3
    2ac6:	bf3d                	j	2a04 <__addsf3+0x21e>
    2ac8:	40f706b3          	sub	a3,a4,a5
    2acc:	842e                	mv	s0,a1
    2ace:	bd59                	j	2964 <__addsf3+0x17e>
    2ad0:	97ba                	add	a5,a5,a4
    2ad2:	04000737          	lui	a4,0x4000
    2ad6:	8f7d                	and	a4,a4,a5
    2ad8:	4609                	li	a2,2
    2ada:	4485                	li	s1,1
    2adc:	fb45                	bnez	a4,2a8c <__addsf3+0x2a6>
    2ade:	bbd9                	j	28b4 <__addsf3+0xce>
    2ae0:	8f99                	sub	a5,a5,a4
    2ae2:	4485                	li	s1,1
    2ae4:	b3d9                	j	28aa <__addsf3+0xc4>
    2ae6:	ea078fe3          	beqz	a5,29a4 <__addsf3+0x1be>
    2aea:	e60710e3          	bnez	a4,294a <__addsf3+0x164>
    2aee:	838d                	srli	a5,a5,0x3
    2af0:	bda1                	j	2948 <__addsf3+0x162>
    2af2:	02000593          	li	a1,32
    2af6:	8d91                	sub	a1,a1,a2
    2af8:	00b795b3          	sll	a1,a5,a1
    2afc:	00c7d7b3          	srl	a5,a5,a2
    2b00:	00b03633          	snez	a2,a1
    2b04:	8fd1                	or	a5,a5,a2
    2b06:	97ba                	add	a5,a5,a4
    2b08:	84aa                	mv	s1,a0
    2b0a:	b7ad                	j	2a74 <__addsf3+0x28e>
    2b0c:	d729                	beqz	a4,2a56 <__addsf3+0x270>
    2b0e:	842e                	mv	s0,a1
    2b10:	87ba                	mv	a5,a4
    2b12:	b5fd                	j	2a00 <__addsf3+0x21a>
    2b14:	40f707b3          	sub	a5,a4,a5
    2b18:	842e                	mv	s0,a1
    2b1a:	4485                	li	s1,1
    2b1c:	b379                	j	28aa <__addsf3+0xc4>
    2b1e:	87ba                	mv	a5,a4
    2b20:	b5c5                	j	2a00 <__addsf3+0x21a>
    2b22:	97ba                	add	a5,a5,a4
    2b24:	040006b7          	lui	a3,0x4000
    2b28:	8efd                	and	a3,a3,a5
    2b2a:	4601                	li	a2,0
    2b2c:	dec1                	beqz	a3,2ac4 <__addsf3+0x2de>
    2b2e:	fc000737          	lui	a4,0xfc000
    2b32:	177d                	addi	a4,a4,-1 # fbffffff <_eusrstack+0xdbffefff>
    2b34:	8ff9                	and	a5,a5,a4
    2b36:	4605                	li	a2,1
    2b38:	838d                	srli	a5,a5,0x3
    2b3a:	b5e9                	j	2a04 <__addsf3+0x21e>
    2b3c:	87aa                	mv	a5,a0
    2b3e:	dd01                	beqz	a0,2a56 <__addsf3+0x270>
    2b40:	838d                	srli	a5,a5,0x3
    2b42:	b5c9                	j	2a04 <__addsf3+0x21e>

00002b44 <__lesf2>:
    2b44:	01755613          	srli	a2,a0,0x17
    2b48:	00800737          	lui	a4,0x800
    2b4c:	177d                	addi	a4,a4,-1 # 7fffff <_data_lma+0x7fc687>
    2b4e:	0175d693          	srli	a3,a1,0x17
    2b52:	0ff67613          	zext.b	a2,a2
    2b56:	0ff00313          	li	t1,255
    2b5a:	00a772b3          	and	t0,a4,a0
    2b5e:	01f55793          	srli	a5,a0,0x1f
    2b62:	8f6d                	and	a4,a4,a1
    2b64:	0ff6f513          	zext.b	a0,a3
    2b68:	81fd                	srli	a1,a1,0x1f
    2b6a:	02660663          	beq	a2,t1,2b96 <__lesf2+0x52>
    2b6e:	00650a63          	beq	a0,t1,2b82 <__lesf2+0x3e>
    2b72:	ee05                	bnez	a2,2baa <__lesf2+0x66>
    2b74:	e911                	bnez	a0,2b88 <__lesf2+0x44>
    2b76:	cb29                	beqz	a4,2bc8 <__lesf2+0x84>
    2b78:	04029f63          	bnez	t0,2bd6 <__lesf2+0x92>
    2b7c:	c9b9                	beqz	a1,2bd2 <__lesf2+0x8e>
    2b7e:	852e                	mv	a0,a1
    2b80:	8082                	ret
    2b82:	4509                	li	a0,2
    2b84:	eb01                	bnez	a4,2b94 <__lesf2+0x50>
    2b86:	e219                	bnez	a2,2b8c <__lesf2+0x48>
    2b88:	fe028ae3          	beqz	t0,2b7c <__lesf2+0x38>
    2b8c:	02b78b63          	beq	a5,a1,2bc2 <__lesf2+0x7e>
    2b90:	4505                	li	a0,1
    2b92:	e3a1                	bnez	a5,2bd2 <__lesf2+0x8e>
    2b94:	8082                	ret
    2b96:	02029c63          	bnez	t0,2bce <__lesf2+0x8a>
    2b9a:	fec51be3          	bne	a0,a2,2b90 <__lesf2+0x4c>
    2b9e:	4509                	li	a0,2
    2ba0:	fb75                	bnez	a4,2b94 <__lesf2+0x50>
    2ba2:	feb797e3          	bne	a5,a1,2b90 <__lesf2+0x4c>
    2ba6:	4501                	li	a0,0
    2ba8:	8082                	ret
    2baa:	d17d                	beqz	a0,2b90 <__lesf2+0x4c>
    2bac:	feb792e3          	bne	a5,a1,2b90 <__lesf2+0x4c>
    2bb0:	fec540e3          	blt	a0,a2,2b90 <__lesf2+0x4c>
    2bb4:	00a64763          	blt	a2,a0,2bc2 <__lesf2+0x7e>
    2bb8:	fc576ce3          	bltu	a4,t0,2b90 <__lesf2+0x4c>
    2bbc:	4501                	li	a0,0
    2bbe:	fce2fbe3          	bgeu	t0,a4,2b94 <__lesf2+0x50>
    2bc2:	cb81                	beqz	a5,2bd2 <__lesf2+0x8e>
    2bc4:	853e                	mv	a0,a5
    2bc6:	8082                	ret
    2bc8:	fc0294e3          	bnez	t0,2b90 <__lesf2+0x4c>
    2bcc:	8082                	ret
    2bce:	4509                	li	a0,2
    2bd0:	8082                	ret
    2bd2:	557d                	li	a0,-1
    2bd4:	8082                	ret
    2bd6:	feb781e3          	beq	a5,a1,2bb8 <__lesf2+0x74>
    2bda:	bf5d                	j	2b90 <__lesf2+0x4c>

00002bdc <__mulsf3>:
    2bdc:	1101                	addi	sp,sp,-32
    2bde:	ca26                	sw	s1,20(sp)
    2be0:	01755493          	srli	s1,a0,0x17
    2be4:	00951613          	slli	a2,a0,0x9
    2be8:	ce06                	sw	ra,28(sp)
    2bea:	cc22                	sw	s0,24(sp)
    2bec:	0ff4f493          	zext.b	s1,s1
    2bf0:	8225                	srli	a2,a2,0x9
    2bf2:	01f55693          	srli	a3,a0,0x1f
    2bf6:	10048763          	beqz	s1,2d04 <__mulsf3+0x128>
    2bfa:	0ff00793          	li	a5,255
    2bfe:	10f48863          	beq	s1,a5,2d0e <__mulsf3+0x132>
    2c02:	060e                	slli	a2,a2,0x3
    2c04:	040007b7          	lui	a5,0x4000
    2c08:	8e5d                	or	a2,a2,a5
    2c0a:	f8148493          	addi	s1,s1,-127
    2c0e:	4701                	li	a4,0
    2c10:	4281                	li	t0,0
    2c12:	0175d793          	srli	a5,a1,0x17
    2c16:	00959413          	slli	s0,a1,0x9
    2c1a:	0ff7f793          	zext.b	a5,a5
    2c1e:	8025                	srli	s0,s0,0x9
    2c20:	81fd                	srli	a1,a1,0x1f
    2c22:	c7e9                	beqz	a5,2cec <__mulsf3+0x110>
    2c24:	0ff00513          	li	a0,255
    2c28:	04a78f63          	beq	a5,a0,2c86 <__mulsf3+0xaa>
    2c2c:	f8178793          	addi	a5,a5,-127 # 3ffff81 <_data_lma+0x3ffc609>
    2c30:	04000537          	lui	a0,0x4000
    2c34:	040e                	slli	s0,s0,0x3
    2c36:	8c49                	or	s0,s0,a0
    2c38:	00978533          	add	a0,a5,s1
    2c3c:	00150493          	addi	s1,a0,1 # 4000001 <_data_lma+0x3ffc689>
    2c40:	4329                	li	t1,10
    2c42:	c026                	sw	s1,0(sp)
    2c44:	4781                	li	a5,0
    2c46:	0ee34c63          	blt	t1,a4,2d3e <__mulsf3+0x162>
    2c4a:	00b6c333          	xor	t1,a3,a1
    2c4e:	4689                	li	a3,2
    2c50:	839a                	mv	t2,t1
    2c52:	04e6c963          	blt	a3,a4,2ca4 <__mulsf3+0xc8>
    2c56:	177d                	addi	a4,a4,-1
    2c58:	4585                	li	a1,1
    2c5a:	14e5e963          	bltu	a1,a4,2dac <__mulsf3+0x1d0>
    2c5e:	0ad78e63          	beq	a5,a3,2d1a <__mulsf3+0x13e>
    2c62:	4705                	li	a4,1
    2c64:	831e                	mv	t1,t2
    2c66:	06e79163          	bne	a5,a4,2cc8 <__mulsf3+0xec>
    2c6a:	4781                	li	a5,0
    2c6c:	4381                	li	t2,0
    2c6e:	40f2                	lw	ra,28(sp)
    2c70:	4462                	lw	s0,24(sp)
    2c72:	01779513          	slli	a0,a5,0x17
    2c76:	00756533          	or	a0,a0,t2
    2c7a:	037e                	slli	t1,t1,0x1f
    2c7c:	44d2                	lw	s1,20(sp)
    2c7e:	00656533          	or	a0,a0,t1
    2c82:	6105                	addi	sp,sp,32
    2c84:	8082                	ret
    2c86:	0ff48513          	addi	a0,s1,255
    2c8a:	cc49                	beqz	s0,2d24 <__mulsf3+0x148>
    2c8c:	10048493          	addi	s1,s1,256
    2c90:	00b6c333          	xor	t1,a3,a1
    2c94:	c026                	sw	s1,0(sp)
    2c96:	00376713          	ori	a4,a4,3
    2c9a:	44a9                	li	s1,10
    2c9c:	839a                	mv	t2,t1
    2c9e:	20e4c663          	blt	s1,a4,2eaa <__mulsf3+0x2ce>
    2ca2:	478d                	li	a5,3
    2ca4:	4685                	li	a3,1
    2ca6:	00e69733          	sll	a4,a3,a4
    2caa:	53077693          	andi	a3,a4,1328
    2cae:	ce99                	beqz	a3,2ccc <__mulsf3+0xf0>
    2cb0:	4789                	li	a5,2
    2cb2:	06f28463          	beq	t0,a5,2d1a <__mulsf3+0x13e>
    2cb6:	478d                	li	a5,3
    2cb8:	02f28463          	beq	t0,a5,2ce0 <__mulsf3+0x104>
    2cbc:	8796                	mv	a5,t0
    2cbe:	4705                	li	a4,1
    2cc0:	8432                	mv	s0,a2
    2cc2:	831e                	mv	t1,t2
    2cc4:	fae783e3          	beq	a5,a4,2c6a <__mulsf3+0x8e>
    2cc8:	4502                	lw	a0,0(sp)
    2cca:	a2a1                	j	2e12 <__mulsf3+0x236>
    2ccc:	24077693          	andi	a3,a4,576
    2cd0:	ea81                	bnez	a3,2ce0 <__mulsf3+0x104>
    2cd2:	08877713          	andi	a4,a4,136
    2cd6:	cb79                	beqz	a4,2dac <__mulsf3+0x1d0>
    2cd8:	83ae                	mv	t2,a1
    2cda:	8622                	mv	a2,s0
    2cdc:	82be                	mv	t0,a5
    2cde:	bfc9                	j	2cb0 <__mulsf3+0xd4>
    2ce0:	4301                	li	t1,0
    2ce2:	0ff00793          	li	a5,255
    2ce6:	004003b7          	lui	t2,0x400
    2cea:	b751                	j	2c6e <__mulsf3+0x92>
    2cec:	e059                	bnez	s0,2d72 <__mulsf3+0x196>
    2cee:	8526                	mv	a0,s1
    2cf0:	00150493          	addi	s1,a0,1
    2cf4:	00176713          	ori	a4,a4,1
    2cf8:	4329                	li	t1,10
    2cfa:	c026                	sw	s1,0(sp)
    2cfc:	4785                	li	a5,1
    2cfe:	f4e356e3          	bge	t1,a4,2c4a <__mulsf3+0x6e>
    2d02:	a835                	j	2d3e <__mulsf3+0x162>
    2d04:	e621                	bnez	a2,2d4c <__mulsf3+0x170>
    2d06:	4711                	li	a4,4
    2d08:	4481                	li	s1,0
    2d0a:	4285                	li	t0,1
    2d0c:	b719                	j	2c12 <__mulsf3+0x36>
    2d0e:	ea15                	bnez	a2,2d42 <__mulsf3+0x166>
    2d10:	4721                	li	a4,8
    2d12:	0ff00493          	li	s1,255
    2d16:	4289                	li	t0,2
    2d18:	bded                	j	2c12 <__mulsf3+0x36>
    2d1a:	831e                	mv	t1,t2
    2d1c:	0ff00793          	li	a5,255
    2d20:	4381                	li	t2,0
    2d22:	b7b1                	j	2c6e <__mulsf3+0x92>
    2d24:	10048793          	addi	a5,s1,256
    2d28:	c03e                	sw	a5,0(sp)
    2d2a:	00276713          	ori	a4,a4,2
    2d2e:	4329                	li	t1,10
    2d30:	43b9                	li	t2,14
    2d32:	4789                	li	a5,2
    2d34:	f0e35be3          	bge	t1,a4,2c4a <__mulsf3+0x6e>
    2d38:	472d                	li	a4,11
    2d3a:	f8e38fe3          	beq	t2,a4,2cd8 <__mulsf3+0xfc>
    2d3e:	83b6                	mv	t2,a3
    2d40:	bf85                	j	2cb0 <__mulsf3+0xd4>
    2d42:	4731                	li	a4,12
    2d44:	0ff00493          	li	s1,255
    2d48:	428d                	li	t0,3
    2d4a:	b5e1                	j	2c12 <__mulsf3+0x36>
    2d4c:	8532                	mv	a0,a2
    2d4e:	c42e                	sw	a1,8(sp)
    2d50:	c236                	sw	a3,4(sp)
    2d52:	c032                	sw	a2,0(sp)
    2d54:	011000ef          	jal	ra,3564 <__clzsi2>
    2d58:	4602                	lw	a2,0(sp)
    2d5a:	ffb50793          	addi	a5,a0,-5
    2d5e:	f8a00493          	li	s1,-118
    2d62:	4692                	lw	a3,4(sp)
    2d64:	45a2                	lw	a1,8(sp)
    2d66:	00f61633          	sll	a2,a2,a5
    2d6a:	8c89                	sub	s1,s1,a0
    2d6c:	4701                	li	a4,0
    2d6e:	4281                	li	t0,0
    2d70:	b54d                	j	2c12 <__mulsf3+0x36>
    2d72:	8522                	mv	a0,s0
    2d74:	c832                	sw	a2,16(sp)
    2d76:	c616                	sw	t0,12(sp)
    2d78:	c43a                	sw	a4,8(sp)
    2d7a:	c22e                	sw	a1,4(sp)
    2d7c:	c036                	sw	a3,0(sp)
    2d7e:	7e6000ef          	jal	ra,3564 <__clzsi2>
    2d82:	ffb50793          	addi	a5,a0,-5
    2d86:	40a48533          	sub	a0,s1,a0
    2d8a:	f8a50513          	addi	a0,a0,-118
    2d8e:	4722                	lw	a4,8(sp)
    2d90:	00150493          	addi	s1,a0,1
    2d94:	4682                	lw	a3,0(sp)
    2d96:	4329                	li	t1,10
    2d98:	c026                	sw	s1,0(sp)
    2d9a:	00f41433          	sll	s0,s0,a5
    2d9e:	4592                	lw	a1,4(sp)
    2da0:	42b2                	lw	t0,12(sp)
    2da2:	4642                	lw	a2,16(sp)
    2da4:	4781                	li	a5,0
    2da6:	eae352e3          	bge	t1,a4,2c4a <__mulsf3+0x6e>
    2daa:	bf51                	j	2d3e <__mulsf3+0x162>
    2dac:	63c1                	lui	t2,0x10
    2dae:	fff38713          	addi	a4,t2,-1 # ffff <_data_lma+0xc687>
    2db2:	01065693          	srli	a3,a2,0x10
    2db6:	01045293          	srli	t0,s0,0x10
    2dba:	8e79                	and	a2,a2,a4
    2dbc:	8f61                	and	a4,a4,s0
    2dbe:	02c705b3          	mul	a1,a4,a2
    2dc2:	02e68733          	mul	a4,a3,a4
    2dc6:	0105d793          	srli	a5,a1,0x10
    2dca:	02c28633          	mul	a2,t0,a2
    2dce:	963a                	add	a2,a2,a4
    2dd0:	97b2                	add	a5,a5,a2
    2dd2:	025686b3          	mul	a3,a3,t0
    2dd6:	00e7f363          	bgeu	a5,a4,2ddc <__mulsf3+0x200>
    2dda:	969e                	add	a3,a3,t2
    2ddc:	6641                	lui	a2,0x10
    2dde:	167d                	addi	a2,a2,-1 # ffff <_data_lma+0xc687>
    2de0:	00c7f733          	and	a4,a5,a2
    2de4:	8df1                	and	a1,a1,a2
    2de6:	0742                	slli	a4,a4,0x10
    2de8:	972e                	add	a4,a4,a1
    2dea:	00671613          	slli	a2,a4,0x6
    2dee:	0107d413          	srli	s0,a5,0x10
    2df2:	8369                	srli	a4,a4,0x1a
    2df4:	00c037b3          	snez	a5,a2
    2df8:	9436                	add	s0,s0,a3
    2dfa:	8fd9                	or	a5,a5,a4
    2dfc:	041a                	slli	s0,s0,0x6
    2dfe:	8c5d                	or	s0,s0,a5
    2e00:	080007b7          	lui	a5,0x8000
    2e04:	8fe1                	and	a5,a5,s0
    2e06:	c791                	beqz	a5,2e12 <__mulsf3+0x236>
    2e08:	4502                	lw	a0,0(sp)
    2e0a:	00145793          	srli	a5,s0,0x1
    2e0e:	8805                	andi	s0,s0,1
    2e10:	8c5d                	or	s0,s0,a5
    2e12:	07f50793          	addi	a5,a0,127
    2e16:	04f05063          	blez	a5,2e56 <__mulsf3+0x27a>
    2e1a:	00747713          	andi	a4,s0,7
    2e1e:	c719                	beqz	a4,2e2c <__mulsf3+0x250>
    2e20:	00f47713          	andi	a4,s0,15
    2e24:	4691                	li	a3,4
    2e26:	00d70363          	beq	a4,a3,2e2c <__mulsf3+0x250>
    2e2a:	0411                	addi	s0,s0,4
    2e2c:	08000737          	lui	a4,0x8000
    2e30:	8f61                	and	a4,a4,s0
    2e32:	c719                	beqz	a4,2e40 <__mulsf3+0x264>
    2e34:	f80007b7          	lui	a5,0xf8000
    2e38:	17fd                	addi	a5,a5,-1 # f7ffffff <_eusrstack+0xd7ffefff>
    2e3a:	8c7d                	and	s0,s0,a5
    2e3c:	08050793          	addi	a5,a0,128
    2e40:	0fe00713          	li	a4,254
    2e44:	04f74a63          	blt	a4,a5,2e98 <__mulsf3+0x2bc>
    2e48:	00641393          	slli	t2,s0,0x6
    2e4c:	0093d393          	srli	t2,t2,0x9
    2e50:	0ff7f793          	zext.b	a5,a5
    2e54:	bd29                	j	2c6e <__mulsf3+0x92>
    2e56:	4705                	li	a4,1
    2e58:	c799                	beqz	a5,2e66 <__mulsf3+0x28a>
    2e5a:	8f1d                	sub	a4,a4,a5
    2e5c:	46ed                	li	a3,27
    2e5e:	4781                	li	a5,0
    2e60:	4381                	li	t2,0
    2e62:	e0e6c6e3          	blt	a3,a4,2c6e <__mulsf3+0x92>
    2e66:	09e50513          	addi	a0,a0,158
    2e6a:	00a41533          	sll	a0,s0,a0
    2e6e:	00e457b3          	srl	a5,s0,a4
    2e72:	00a03733          	snez	a4,a0
    2e76:	8fd9                	or	a5,a5,a4
    2e78:	0077f713          	andi	a4,a5,7
    2e7c:	c719                	beqz	a4,2e8a <__mulsf3+0x2ae>
    2e7e:	00f7f713          	andi	a4,a5,15
    2e82:	4691                	li	a3,4
    2e84:	00d70363          	beq	a4,a3,2e8a <__mulsf3+0x2ae>
    2e88:	0791                	addi	a5,a5,4
    2e8a:	04000737          	lui	a4,0x4000
    2e8e:	8f7d                	and	a4,a4,a5
    2e90:	cb01                	beqz	a4,2ea0 <__mulsf3+0x2c4>
    2e92:	4785                	li	a5,1
    2e94:	4381                	li	t2,0
    2e96:	bbe1                	j	2c6e <__mulsf3+0x92>
    2e98:	0ff00793          	li	a5,255
    2e9c:	4381                	li	t2,0
    2e9e:	bbc1                	j	2c6e <__mulsf3+0x92>
    2ea0:	079a                	slli	a5,a5,0x6
    2ea2:	0097d393          	srli	t2,a5,0x9
    2ea6:	4781                	li	a5,0
    2ea8:	b3d9                	j	2c6e <__mulsf3+0x92>
    2eaa:	453d                	li	a0,15
    2eac:	4301                	li	t1,0
    2eae:	004003b7          	lui	t2,0x400
    2eb2:	daa70ee3          	beq	a4,a0,2c6e <__mulsf3+0x92>
    2eb6:	43ad                	li	t2,11
    2eb8:	478d                	li	a5,3
    2eba:	bdbd                	j	2d38 <__mulsf3+0x15c>

00002ebc <__subsf3>:
    2ebc:	00800737          	lui	a4,0x800
    2ec0:	1141                	addi	sp,sp,-16
    2ec2:	0175d693          	srli	a3,a1,0x17
    2ec6:	177d                	addi	a4,a4,-1 # 7fffff <_data_lma+0x7fc687>
    2ec8:	00a777b3          	and	a5,a4,a0
    2ecc:	c422                	sw	s0,8(sp)
    2ece:	8f6d                	and	a4,a4,a1
    2ed0:	01f55413          	srli	s0,a0,0x1f
    2ed4:	c226                	sw	s1,4(sp)
    2ed6:	c606                	sw	ra,12(sp)
    2ed8:	01755493          	srli	s1,a0,0x17
    2edc:	0ff00313          	li	t1,255
    2ee0:	0ff6f513          	zext.b	a0,a3
    2ee4:	0ff4f493          	zext.b	s1,s1
    2ee8:	86a2                	mv	a3,s0
    2eea:	078e                	slli	a5,a5,0x3
    2eec:	81fd                	srli	a1,a1,0x1f
    2eee:	00371613          	slli	a2,a4,0x3
    2ef2:	04650363          	beq	a0,t1,2f38 <__subsf3+0x7c>
    2ef6:	0015c593          	xori	a1,a1,1
    2efa:	40a48733          	sub	a4,s1,a0
    2efe:	00b40f63          	beq	s0,a1,2f1c <__subsf3+0x60>
    2f02:	30e05663          	blez	a4,320e <__subsf3+0x352>
    2f06:	e135                	bnez	a0,2f6a <__subsf3+0xae>
    2f08:	14060c63          	beqz	a2,3060 <__subsf3+0x1a4>
    2f0c:	fff70693          	addi	a3,a4,-1
    2f10:	28068e63          	beqz	a3,31ac <__subsf3+0x2f0>
    2f14:	02670f63          	beq	a4,t1,2f52 <__subsf3+0x96>
    2f18:	8736                	mv	a4,a3
    2f1a:	a8a9                	j	2f74 <__subsf3+0xb8>
    2f1c:	30e05563          	blez	a4,3226 <__subsf3+0x36a>
    2f20:	c96d                	beqz	a0,3012 <__subsf3+0x156>
    2f22:	02648863          	beq	s1,t1,2f52 <__subsf3+0x96>
    2f26:	040005b7          	lui	a1,0x4000
    2f2a:	8e4d                	or	a2,a2,a1
    2f2c:	45ed                	li	a1,27
    2f2e:	12e5df63          	bge	a1,a4,306c <__subsf3+0x1b0>
    2f32:	0785                	addi	a5,a5,1
    2f34:	8726                	mv	a4,s1
    2f36:	a88d                	j	2fa8 <__subsf3+0xec>
    2f38:	f0148713          	addi	a4,s1,-255
    2f3c:	e645                	bnez	a2,2fe4 <__subsf3+0x128>
    2f3e:	0015c593          	xori	a1,a1,1
    2f42:	0eb40163          	beq	s0,a1,3024 <__subsf3+0x168>
    2f46:	18070a63          	beqz	a4,30da <__subsf3+0x21e>
    2f4a:	10048663          	beqz	s1,3056 <__subsf3+0x19a>
    2f4e:	842e                	mv	s0,a1
    2f50:	87b2                	mv	a5,a2
    2f52:	838d                	srli	a5,a5,0x3
    2f54:	00147693          	andi	a3,s0,1
    2f58:	0ff00513          	li	a0,255
    2f5c:	cbbd                	beqz	a5,2fd2 <__subsf3+0x116>
    2f5e:	4681                	li	a3,0
    2f60:	0ff00513          	li	a0,255
    2f64:	004007b7          	lui	a5,0x400
    2f68:	a0ad                	j	2fd2 <__subsf3+0x116>
    2f6a:	fe6484e3          	beq	s1,t1,2f52 <__subsf3+0x96>
    2f6e:	040006b7          	lui	a3,0x4000
    2f72:	8e55                	or	a2,a2,a3
    2f74:	45ed                	li	a1,27
    2f76:	4685                	li	a3,1
    2f78:	00e5cd63          	blt	a1,a4,2f92 <__subsf3+0xd6>
    2f7c:	02000693          	li	a3,32
    2f80:	8e99                	sub	a3,a3,a4
    2f82:	00d616b3          	sll	a3,a2,a3
    2f86:	00e65633          	srl	a2,a2,a4
    2f8a:	00d03733          	snez	a4,a3
    2f8e:	00e666b3          	or	a3,a2,a4
    2f92:	8f95                	sub	a5,a5,a3
    2f94:	04000737          	lui	a4,0x4000
    2f98:	00e7f6b3          	and	a3,a5,a4
    2f9c:	10069163          	bnez	a3,309e <__subsf3+0x1e2>
    2fa0:	0077f693          	andi	a3,a5,7
    2fa4:	8726                	mv	a4,s1
    2fa6:	cecd                	beqz	a3,3060 <__subsf3+0x1a4>
    2fa8:	00f7f693          	andi	a3,a5,15
    2fac:	4611                	li	a2,4
    2fae:	00c68363          	beq	a3,a2,2fb4 <__subsf3+0xf8>
    2fb2:	0791                	addi	a5,a5,4 # 400004 <_data_lma+0x3fc68c>
    2fb4:	040006b7          	lui	a3,0x4000
    2fb8:	8efd                	and	a3,a3,a5
    2fba:	c2dd                	beqz	a3,3060 <__subsf3+0x1a4>
    2fbc:	0705                	addi	a4,a4,1 # 4000001 <_data_lma+0x3ffc689>
    2fbe:	0ff00613          	li	a2,255
    2fc2:	00147693          	andi	a3,s0,1
    2fc6:	0cc70863          	beq	a4,a2,3096 <__subsf3+0x1da>
    2fca:	079a                	slli	a5,a5,0x6
    2fcc:	0ff77513          	zext.b	a0,a4
    2fd0:	83a5                	srli	a5,a5,0x9
    2fd2:	40b2                	lw	ra,12(sp)
    2fd4:	4422                	lw	s0,8(sp)
    2fd6:	055e                	slli	a0,a0,0x17
    2fd8:	8d5d                	or	a0,a0,a5
    2fda:	06fe                	slli	a3,a3,0x1f
    2fdc:	4492                	lw	s1,4(sp)
    2fde:	8d55                	or	a0,a0,a3
    2fe0:	0141                	addi	sp,sp,16
    2fe2:	8082                	ret
    2fe4:	f6b411e3          	bne	s0,a1,2f46 <__subsf3+0x8a>
    2fe8:	c331                	beqz	a4,302c <__subsf3+0x170>
    2fea:	1a049f63          	bnez	s1,31a8 <__subsf3+0x2ec>
    2fee:	0ff00713          	li	a4,255
    2ff2:	c7b5                	beqz	a5,305e <__subsf3+0x1a2>
    2ff4:	fff70593          	addi	a1,a4,-1
    2ff8:	12058763          	beqz	a1,3126 <__subsf3+0x26a>
    2ffc:	0ff00313          	li	t1,255
    3000:	1a670463          	beq	a4,t1,31a8 <__subsf3+0x2ec>
    3004:	476d                	li	a4,27
    3006:	1ab75963          	bge	a4,a1,31b8 <__subsf3+0x2fc>
    300a:	00160793          	addi	a5,a2,1
    300e:	872a                	mv	a4,a0
    3010:	bf61                	j	2fa8 <__subsf3+0xec>
    3012:	c639                	beqz	a2,3060 <__subsf3+0x1a4>
    3014:	fff70593          	addi	a1,a4,-1
    3018:	10058763          	beqz	a1,3126 <__subsf3+0x26a>
    301c:	f2670be3          	beq	a4,t1,2f52 <__subsf3+0x96>
    3020:	872e                	mv	a4,a1
    3022:	b729                	j	2f2c <__subsf3+0x70>
    3024:	c701                	beqz	a4,302c <__subsf3+0x170>
    3026:	d4e1                	beqz	s1,2fee <__subsf3+0x132>
    3028:	4781                	li	a5,0
    302a:	b725                	j	2f52 <__subsf3+0x96>
    302c:	00148713          	addi	a4,s1,1
    3030:	0fe77593          	andi	a1,a4,254
    3034:	14059463          	bnez	a1,317c <__subsf3+0x2c0>
    3038:	16049763          	bnez	s1,31a6 <__subsf3+0x2ea>
    303c:	1a078563          	beqz	a5,31e6 <__subsf3+0x32a>
    3040:	1a061563          	bnez	a2,31ea <__subsf3+0x32e>
    3044:	838d                	srli	a5,a5,0x3
    3046:	4701                	li	a4,0
    3048:	07a6                	slli	a5,a5,0x9
    304a:	83a5                	srli	a5,a5,0x9
    304c:	0ff77513          	zext.b	a0,a4
    3050:	00147693          	andi	a3,s0,1
    3054:	bfbd                	j	2fd2 <__subsf3+0x116>
    3056:	0ff00713          	li	a4,255
    305a:	e7fd                	bnez	a5,3148 <__subsf3+0x28c>
    305c:	842e                	mv	s0,a1
    305e:	87b2                	mv	a5,a2
    3060:	0ff00693          	li	a3,255
    3064:	838d                	srli	a5,a5,0x3
    3066:	eed707e3          	beq	a4,a3,2f54 <__subsf3+0x98>
    306a:	bff9                	j	3048 <__subsf3+0x18c>
    306c:	02000593          	li	a1,32
    3070:	8d99                	sub	a1,a1,a4
    3072:	00b615b3          	sll	a1,a2,a1
    3076:	00b035b3          	snez	a1,a1
    307a:	00e65633          	srl	a2,a2,a4
    307e:	8e4d                	or	a2,a2,a1
    3080:	97b2                	add	a5,a5,a2
    3082:	04000737          	lui	a4,0x4000
    3086:	8f7d                	and	a4,a4,a5
    3088:	df01                	beqz	a4,2fa0 <__subsf3+0xe4>
    308a:	00148713          	addi	a4,s1,1
    308e:	0ff00613          	li	a2,255
    3092:	0ac71263          	bne	a4,a2,3136 <__subsf3+0x27a>
    3096:	0ff00513          	li	a0,255
    309a:	4781                	li	a5,0
    309c:	bf1d                	j	2fd2 <__subsf3+0x116>
    309e:	177d                	addi	a4,a4,-1 # 3ffffff <_data_lma+0x3ffc687>
    30a0:	8f7d                	and	a4,a4,a5
    30a2:	853a                	mv	a0,a4
    30a4:	c03a                	sw	a4,0(sp)
    30a6:	297d                	jal	3564 <__clzsi2>
    30a8:	4702                	lw	a4,0(sp)
    30aa:	156d                	addi	a0,a0,-5
    30ac:	00a716b3          	sll	a3,a4,a0
    30b0:	04954963          	blt	a0,s1,3102 <__subsf3+0x246>
    30b4:	8d05                	sub	a0,a0,s1
    30b6:	00150793          	addi	a5,a0,1
    30ba:	02000713          	li	a4,32
    30be:	8f1d                	sub	a4,a4,a5
    30c0:	00e69733          	sll	a4,a3,a4
    30c4:	00e03733          	snez	a4,a4
    30c8:	00f6d7b3          	srl	a5,a3,a5
    30cc:	8fd9                	or	a5,a5,a4
    30ce:	4701                	li	a4,0
    30d0:	0077f693          	andi	a3,a5,7
    30d4:	ec069ae3          	bnez	a3,2fa8 <__subsf3+0xec>
    30d8:	bdf1                	j	2fb4 <__subsf3+0xf8>
    30da:	00148713          	addi	a4,s1,1
    30de:	0fe77713          	andi	a4,a4,254
    30e2:	e71d                	bnez	a4,3110 <__subsf3+0x254>
    30e4:	e8cd                	bnez	s1,3196 <__subsf3+0x2da>
    30e6:	cfe5                	beqz	a5,31de <__subsf3+0x322>
    30e8:	de31                	beqz	a2,3044 <__subsf3+0x188>
    30ea:	40c78733          	sub	a4,a5,a2
    30ee:	040006b7          	lui	a3,0x4000
    30f2:	8ef9                	and	a3,a3,a4
    30f4:	10068863          	beqz	a3,3204 <__subsf3+0x348>
    30f8:	40f607b3          	sub	a5,a2,a5
    30fc:	4701                	li	a4,0
    30fe:	842e                	mv	s0,a1
    3100:	bfc1                	j	30d0 <__subsf3+0x214>
    3102:	fc0007b7          	lui	a5,0xfc000
    3106:	17fd                	addi	a5,a5,-1 # fbffffff <_eusrstack+0xdbffefff>
    3108:	40a48733          	sub	a4,s1,a0
    310c:	8ff5                	and	a5,a5,a3
    310e:	b7c9                	j	30d0 <__subsf3+0x214>
    3110:	40c78733          	sub	a4,a5,a2
    3114:	040006b7          	lui	a3,0x4000
    3118:	8ef9                	and	a3,a3,a4
    311a:	e2d1                	bnez	a3,319e <__subsf3+0x2e2>
    311c:	f359                	bnez	a4,30a2 <__subsf3+0x1e6>
    311e:	4681                	li	a3,0
    3120:	4501                	li	a0,0
    3122:	4781                	li	a5,0
    3124:	b57d                	j	2fd2 <__subsf3+0x116>
    3126:	97b2                	add	a5,a5,a2
    3128:	040006b7          	lui	a3,0x4000
    312c:	8efd                	and	a3,a3,a5
    312e:	4709                	li	a4,2
    3130:	4485                	li	s1,1
    3132:	e60687e3          	beqz	a3,2fa0 <__subsf3+0xe4>
    3136:	7e000637          	lui	a2,0x7e000
    313a:	0017d693          	srli	a3,a5,0x1
    313e:	167d                	addi	a2,a2,-1 # 7dffffff <_eusrstack+0x5dffefff>
    3140:	8b85                	andi	a5,a5,1
    3142:	8ef1                	and	a3,a3,a2
    3144:	8fd5                	or	a5,a5,a3
    3146:	b769                	j	30d0 <__subsf3+0x214>
    3148:	fff70693          	addi	a3,a4,-1
    314c:	c6c1                	beqz	a3,31d4 <__subsf3+0x318>
    314e:	0ff00313          	li	t1,255
    3152:	842e                	mv	s0,a1
    3154:	04670a63          	beq	a4,t1,31a8 <__subsf3+0x2ec>
    3158:	45ed                	li	a1,27
    315a:	4705                	li	a4,1
    315c:	00d5cc63          	blt	a1,a3,3174 <__subsf3+0x2b8>
    3160:	02000713          	li	a4,32
    3164:	8f15                	sub	a4,a4,a3
    3166:	00e79733          	sll	a4,a5,a4
    316a:	00d7d6b3          	srl	a3,a5,a3
    316e:	00e03733          	snez	a4,a4
    3172:	8f55                	or	a4,a4,a3
    3174:	40e607b3          	sub	a5,a2,a4
    3178:	84aa                	mv	s1,a0
    317a:	bd29                	j	2f94 <__subsf3+0xd8>
    317c:	0ff00593          	li	a1,255
    3180:	f0b70be3          	beq	a4,a1,3096 <__subsf3+0x1da>
    3184:	963e                	add	a2,a2,a5
    3186:	00165793          	srli	a5,a2,0x1
    318a:	0077f693          	andi	a3,a5,7
    318e:	e0069de3          	bnez	a3,2fa8 <__subsf3+0xec>
    3192:	838d                	srli	a5,a5,0x3
    3194:	bd55                	j	3048 <__subsf3+0x18c>
    3196:	ef91                	bnez	a5,31b2 <__subsf3+0x2f6>
    3198:	dc0603e3          	beqz	a2,2f5e <__subsf3+0xa2>
    319c:	bb4d                	j	2f4e <__subsf3+0x92>
    319e:	40f60733          	sub	a4,a2,a5
    31a2:	842e                	mv	s0,a1
    31a4:	bdfd                	j	30a2 <__subsf3+0x1e6>
    31a6:	e791                	bnez	a5,31b2 <__subsf3+0x2f6>
    31a8:	87b2                	mv	a5,a2
    31aa:	b365                	j	2f52 <__subsf3+0x96>
    31ac:	8f91                	sub	a5,a5,a2
    31ae:	4485                	li	s1,1
    31b0:	b3d5                	j	2f94 <__subsf3+0xd8>
    31b2:	da0600e3          	beqz	a2,2f52 <__subsf3+0x96>
    31b6:	b365                	j	2f5e <__subsf3+0xa2>
    31b8:	02000713          	li	a4,32
    31bc:	8f0d                	sub	a4,a4,a1
    31be:	00e79733          	sll	a4,a5,a4
    31c2:	00b7d5b3          	srl	a1,a5,a1
    31c6:	00e037b3          	snez	a5,a4
    31ca:	8ddd                	or	a1,a1,a5
    31cc:	00c587b3          	add	a5,a1,a2
    31d0:	84aa                	mv	s1,a0
    31d2:	bd45                	j	3082 <__subsf3+0x1c6>
    31d4:	40f607b3          	sub	a5,a2,a5
    31d8:	842e                	mv	s0,a1
    31da:	4485                	li	s1,1
    31dc:	bb65                	j	2f94 <__subsf3+0xd8>
    31de:	d221                	beqz	a2,311e <__subsf3+0x262>
    31e0:	842e                	mv	s0,a1
    31e2:	87b2                	mv	a5,a2
    31e4:	b585                	j	3044 <__subsf3+0x188>
    31e6:	87b2                	mv	a5,a2
    31e8:	bdb1                	j	3044 <__subsf3+0x188>
    31ea:	97b2                	add	a5,a5,a2
    31ec:	040006b7          	lui	a3,0x4000
    31f0:	8efd                	and	a3,a3,a5
    31f2:	4701                	li	a4,0
    31f4:	ded9                	beqz	a3,3192 <__subsf3+0x2d6>
    31f6:	fc000737          	lui	a4,0xfc000
    31fa:	177d                	addi	a4,a4,-1 # fbffffff <_eusrstack+0xdbffefff>
    31fc:	8ff9                	and	a5,a5,a4
    31fe:	838d                	srli	a5,a5,0x3
    3200:	4705                	li	a4,1
    3202:	b599                	j	3048 <__subsf3+0x18c>
    3204:	df09                	beqz	a4,311e <__subsf3+0x262>
    3206:	87ba                	mv	a5,a4
    3208:	838d                	srli	a5,a5,0x3
    320a:	4701                	li	a4,0
    320c:	bd35                	j	3048 <__subsf3+0x18c>
    320e:	ec0706e3          	beqz	a4,30da <__subsf3+0x21e>
    3212:	409506b3          	sub	a3,a0,s1
    3216:	8736                	mv	a4,a3
    3218:	e40481e3          	beqz	s1,305a <__subsf3+0x19e>
    321c:	04000737          	lui	a4,0x4000
    3220:	8fd9                	or	a5,a5,a4
    3222:	842e                	mv	s0,a1
    3224:	bf15                	j	3158 <__subsf3+0x29c>
    3226:	e00703e3          	beqz	a4,302c <__subsf3+0x170>
    322a:	409505b3          	sub	a1,a0,s1
    322e:	e099                	bnez	s1,3234 <__subsf3+0x378>
    3230:	872e                	mv	a4,a1
    3232:	b3c1                	j	2ff2 <__subsf3+0x136>
    3234:	04000737          	lui	a4,0x4000
    3238:	8fd9                	or	a5,a5,a4
    323a:	b3e9                	j	3004 <__subsf3+0x148>

0000323c <__fixunssfsi>:
    323c:	01755713          	srli	a4,a0,0x17
    3240:	00800637          	lui	a2,0x800
    3244:	fff60793          	addi	a5,a2,-1 # 7fffff <_data_lma+0x7fc687>
    3248:	0ff77713          	zext.b	a4,a4
    324c:	07e00593          	li	a1,126
    3250:	00a7f6b3          	and	a3,a5,a0
    3254:	01f55793          	srli	a5,a0,0x1f
    3258:	4501                	li	a0,0
    325a:	00e5d363          	bge	a1,a4,3260 <__fixunssfsi+0x24>
    325e:	c391                	beqz	a5,3262 <__fixunssfsi+0x26>
    3260:	8082                	ret
    3262:	09e00793          	li	a5,158
    3266:	557d                	li	a0,-1
    3268:	fee7cce3          	blt	a5,a4,3260 <__fixunssfsi+0x24>
    326c:	09500593          	li	a1,149
    3270:	00c6e7b3          	or	a5,a3,a2
    3274:	00e5d763          	bge	a1,a4,3282 <__fixunssfsi+0x46>
    3278:	f6a70513          	addi	a0,a4,-150 # 3ffff6a <_data_lma+0x3ffc5f2>
    327c:	00a79533          	sll	a0,a5,a0
    3280:	8082                	ret
    3282:	09600513          	li	a0,150
    3286:	8d19                	sub	a0,a0,a4
    3288:	00a7d533          	srl	a0,a5,a0
    328c:	8082                	ret

0000328e <__floatsisf>:
    328e:	1151                	addi	sp,sp,-12
    3290:	c406                	sw	ra,8(sp)
    3292:	c222                	sw	s0,4(sp)
    3294:	c026                	sw	s1,0(sp)
    3296:	c121                	beqz	a0,32d6 <__floatsisf+0x48>
    3298:	41f55713          	srai	a4,a0,0x1f
    329c:	00a744b3          	xor	s1,a4,a0
    32a0:	8c99                	sub	s1,s1,a4
    32a2:	87aa                	mv	a5,a0
    32a4:	8526                	mv	a0,s1
    32a6:	01f7d413          	srli	s0,a5,0x1f
    32aa:	2c6d                	jal	3564 <__clzsi2>
    32ac:	86aa                	mv	a3,a0
    32ae:	09e00513          	li	a0,158
    32b2:	40d507b3          	sub	a5,a0,a3
    32b6:	09600713          	li	a4,150
    32ba:	02f74b63          	blt	a4,a5,32f0 <__floatsisf+0x62>
    32be:	4721                	li	a4,8
    32c0:	08e68b63          	beq	a3,a4,3356 <__floatsisf+0xc8>
    32c4:	ff868513          	addi	a0,a3,-8 # 3fffff8 <_data_lma+0x3ffc680>
    32c8:	00a49733          	sll	a4,s1,a0
    32cc:	0726                	slli	a4,a4,0x9
    32ce:	8325                	srli	a4,a4,0x9
    32d0:	0ff7f513          	zext.b	a0,a5
    32d4:	a021                	j	32dc <__floatsisf+0x4e>
    32d6:	4401                	li	s0,0
    32d8:	4501                	li	a0,0
    32da:	4701                	li	a4,0
    32dc:	40a2                	lw	ra,8(sp)
    32de:	01f41793          	slli	a5,s0,0x1f
    32e2:	4412                	lw	s0,4(sp)
    32e4:	055e                	slli	a0,a0,0x17
    32e6:	8d59                	or	a0,a0,a4
    32e8:	4482                	lw	s1,0(sp)
    32ea:	8d5d                	or	a0,a0,a5
    32ec:	0131                	addi	sp,sp,12
    32ee:	8082                	ret
    32f0:	09900713          	li	a4,153
    32f4:	04f74463          	blt	a4,a5,333c <__floatsisf+0xae>
    32f8:	4715                	li	a4,5
    32fa:	ffb68613          	addi	a2,a3,-5
    32fe:	00e68463          	beq	a3,a4,3306 <__floatsisf+0x78>
    3302:	00c494b3          	sll	s1,s1,a2
    3306:	fc000637          	lui	a2,0xfc000
    330a:	167d                	addi	a2,a2,-1 # fbffffff <_eusrstack+0xdbffefff>
    330c:	0074f593          	andi	a1,s1,7
    3310:	00c4f733          	and	a4,s1,a2
    3314:	cd99                	beqz	a1,3332 <__floatsisf+0xa4>
    3316:	88bd                	andi	s1,s1,15
    3318:	4591                	li	a1,4
    331a:	00b48c63          	beq	s1,a1,3332 <__floatsisf+0xa4>
    331e:	0711                	addi	a4,a4,4
    3320:	040005b7          	lui	a1,0x4000
    3324:	8df9                	and	a1,a1,a4
    3326:	c591                	beqz	a1,3332 <__floatsisf+0xa4>
    3328:	09f00513          	li	a0,159
    332c:	8f71                	and	a4,a4,a2
    332e:	40d507b3          	sub	a5,a0,a3
    3332:	071a                	slli	a4,a4,0x6
    3334:	8325                	srli	a4,a4,0x9
    3336:	0ff7f513          	zext.b	a0,a5
    333a:	b74d                	j	32dc <__floatsisf+0x4e>
    333c:	01b68713          	addi	a4,a3,27
    3340:	4615                	li	a2,5
    3342:	00e49733          	sll	a4,s1,a4
    3346:	8e15                	sub	a2,a2,a3
    3348:	00c4d633          	srl	a2,s1,a2
    334c:	00e03733          	snez	a4,a4
    3350:	00e664b3          	or	s1,a2,a4
    3354:	bf4d                	j	3306 <__floatsisf+0x78>
    3356:	00949713          	slli	a4,s1,0x9
    335a:	8325                	srli	a4,a4,0x9
    335c:	09600513          	li	a0,150
    3360:	bfb5                	j	32dc <__floatsisf+0x4e>

00003362 <__extendsfdf2>:
    3362:	01755793          	srli	a5,a0,0x17
    3366:	0ff7f793          	zext.b	a5,a5
    336a:	1141                	addi	sp,sp,-16
    336c:	00178693          	addi	a3,a5,1
    3370:	c422                	sw	s0,8(sp)
    3372:	00951713          	slli	a4,a0,0x9
    3376:	c606                	sw	ra,12(sp)
    3378:	0fe6f693          	andi	a3,a3,254
    337c:	8325                	srli	a4,a4,0x9
    337e:	01f55413          	srli	s0,a0,0x1f
    3382:	c28d                	beqz	a3,33a4 <__extendsfdf2+0x42>
    3384:	00375693          	srli	a3,a4,0x3
    3388:	38078793          	addi	a5,a5,896
    338c:	0776                	slli	a4,a4,0x1d
    338e:	01f41513          	slli	a0,s0,0x1f
    3392:	40b2                	lw	ra,12(sp)
    3394:	4422                	lw	s0,8(sp)
    3396:	07d2                	slli	a5,a5,0x14
    3398:	8fd5                	or	a5,a5,a3
    339a:	8fc9                	or	a5,a5,a0
    339c:	85be                	mv	a1,a5
    339e:	853a                	mv	a0,a4
    33a0:	0141                	addi	sp,sp,16
    33a2:	8082                	ret
    33a4:	eb8d                	bnez	a5,33d6 <__extendsfdf2+0x74>
    33a6:	c721                	beqz	a4,33ee <__extendsfdf2+0x8c>
    33a8:	853a                	mv	a0,a4
    33aa:	c03a                	sw	a4,0(sp)
    33ac:	2a65                	jal	3564 <__clzsi2>
    33ae:	47a9                	li	a5,10
    33b0:	4702                	lw	a4,0(sp)
    33b2:	04a7c563          	blt	a5,a0,33fc <__extendsfdf2+0x9a>
    33b6:	46ad                	li	a3,11
    33b8:	8e89                	sub	a3,a3,a0
    33ba:	01550793          	addi	a5,a0,21
    33be:	00d756b3          	srl	a3,a4,a3
    33c2:	00f71733          	sll	a4,a4,a5
    33c6:	38900793          	li	a5,905
    33ca:	06b2                	slli	a3,a3,0xc
    33cc:	8f89                	sub	a5,a5,a0
    33ce:	82b1                	srli	a3,a3,0xc
    33d0:	7ff7f793          	andi	a5,a5,2047
    33d4:	bf6d                	j	338e <__extendsfdf2+0x2c>
    33d6:	cf19                	beqz	a4,33f4 <__extendsfdf2+0x92>
    33d8:	00375693          	srli	a3,a4,0x3
    33dc:	000807b7          	lui	a5,0x80
    33e0:	8edd                	or	a3,a3,a5
    33e2:	06b2                	slli	a3,a3,0xc
    33e4:	0776                	slli	a4,a4,0x1d
    33e6:	82b1                	srli	a3,a3,0xc
    33e8:	7ff00793          	li	a5,2047
    33ec:	b74d                	j	338e <__extendsfdf2+0x2c>
    33ee:	4781                	li	a5,0
    33f0:	4681                	li	a3,0
    33f2:	bf71                	j	338e <__extendsfdf2+0x2c>
    33f4:	7ff00793          	li	a5,2047
    33f8:	4681                	li	a3,0
    33fa:	bf51                	j	338e <__extendsfdf2+0x2c>
    33fc:	ff550693          	addi	a3,a0,-11
    3400:	00d716b3          	sll	a3,a4,a3
    3404:	4701                	li	a4,0
    3406:	b7c1                	j	33c6 <__extendsfdf2+0x64>

00003408 <__truncdfsf2>:
    3408:	0145d793          	srli	a5,a1,0x14
    340c:	7ff7f793          	andi	a5,a5,2047
    3410:	00c59693          	slli	a3,a1,0xc
    3414:	00178713          	addi	a4,a5,1 # 80001 <_data_lma+0x7c689>
    3418:	82a5                	srli	a3,a3,0x9
    341a:	01d55613          	srli	a2,a0,0x1d
    341e:	7fe77713          	andi	a4,a4,2046
    3422:	81fd                	srli	a1,a1,0x1f
    3424:	8e55                	or	a2,a2,a3
    3426:	00351313          	slli	t1,a0,0x3
    342a:	c305                	beqz	a4,344a <__truncdfsf2+0x42>
    342c:	c8078693          	addi	a3,a5,-896
    3430:	0fe00713          	li	a4,254
    3434:	04d75363          	bge	a4,a3,347a <__truncdfsf2+0x72>
    3438:	0ff00793          	li	a5,255
    343c:	4701                	li	a4,0
    343e:	07de                	slli	a5,a5,0x17
    3440:	00e7e533          	or	a0,a5,a4
    3444:	05fe                	slli	a1,a1,0x1f
    3446:	8d4d                	or	a0,a0,a1
    3448:	8082                	ret
    344a:	00666733          	or	a4,a2,t1
    344e:	eb81                	bnez	a5,345e <__truncdfsf2+0x56>
    3450:	cb2d                	beqz	a4,34c2 <__truncdfsf2+0xba>
    3452:	4701                	li	a4,0
    3454:	0726                	slli	a4,a4,0x9
    3456:	8325                	srli	a4,a4,0x9
    3458:	0ff7f793          	zext.b	a5,a5
    345c:	b7cd                	j	343e <__truncdfsf2+0x36>
    345e:	0ff00793          	li	a5,255
    3462:	df71                	beqz	a4,343e <__truncdfsf2+0x36>
    3464:	0ff00793          	li	a5,255
    3468:	00400737          	lui	a4,0x400
    346c:	07de                	slli	a5,a5,0x17
    346e:	4581                	li	a1,0
    3470:	00e7e533          	or	a0,a5,a4
    3474:	05fe                	slli	a1,a1,0x1f
    3476:	8d4d                	or	a0,a0,a1
    3478:	8082                	ret
    347a:	04d05c63          	blez	a3,34d2 <__truncdfsf2+0xca>
    347e:	00651713          	slli	a4,a0,0x6
    3482:	00e03733          	snez	a4,a4
    3486:	060e                	slli	a2,a2,0x3
    3488:	01d35313          	srli	t1,t1,0x1d
    348c:	8f51                	or	a4,a4,a2
    348e:	00676733          	or	a4,a4,t1
    3492:	00777793          	andi	a5,a4,7
    3496:	c3f1                	beqz	a5,355a <__truncdfsf2+0x152>
    3498:	00f77793          	andi	a5,a4,15
    349c:	4611                	li	a2,4
    349e:	0ac78e63          	beq	a5,a2,355a <__truncdfsf2+0x152>
    34a2:	0711                	addi	a4,a4,4 # 400004 <_data_lma+0x3fc68c>
    34a4:	040007b7          	lui	a5,0x4000
    34a8:	8ff9                	and	a5,a5,a4
    34aa:	c3d5                	beqz	a5,354e <__truncdfsf2+0x146>
    34ac:	00168793          	addi	a5,a3,1
    34b0:	0ff7f793          	zext.b	a5,a5
    34b4:	4701                	li	a4,0
    34b6:	07de                	slli	a5,a5,0x17
    34b8:	00e7e533          	or	a0,a5,a4
    34bc:	05fe                	slli	a1,a1,0x1f
    34be:	8d4d                	or	a0,a0,a1
    34c0:	8082                	ret
    34c2:	4781                	li	a5,0
    34c4:	4701                	li	a4,0
    34c6:	07de                	slli	a5,a5,0x17
    34c8:	00e7e533          	or	a0,a5,a4
    34cc:	05fe                	slli	a1,a1,0x1f
    34ce:	8d4d                	or	a0,a0,a1
    34d0:	8082                	ret
    34d2:	5725                	li	a4,-23
    34d4:	fee6c7e3          	blt	a3,a4,34c2 <__truncdfsf2+0xba>
    34d8:	4779                	li	a4,30
    34da:	00800537          	lui	a0,0x800
    34de:	8f15                	sub	a4,a4,a3
    34e0:	42fd                	li	t0,31
    34e2:	8e49                	or	a2,a2,a0
    34e4:	02e2df63          	bge	t0,a4,3522 <__truncdfsf2+0x11a>
    34e8:	5579                	li	a0,-2
    34ea:	40d506b3          	sub	a3,a0,a3
    34ee:	02000513          	li	a0,32
    34f2:	00d656b3          	srl	a3,a2,a3
    34f6:	00a70863          	beq	a4,a0,3506 <__truncdfsf2+0xfe>
    34fa:	ca278793          	addi	a5,a5,-862 # 3fffca2 <_data_lma+0x3ffc32a>
    34fe:	00f61633          	sll	a2,a2,a5
    3502:	00c36333          	or	t1,t1,a2
    3506:	00603733          	snez	a4,t1
    350a:	8f55                	or	a4,a4,a3
    350c:	00777793          	andi	a5,a4,7
    3510:	c3b1                	beqz	a5,3554 <__truncdfsf2+0x14c>
    3512:	00f77793          	andi	a5,a4,15
    3516:	4691                	li	a3,4
    3518:	02d79963          	bne	a5,a3,354a <__truncdfsf2+0x142>
    351c:	830d                	srli	a4,a4,0x3
    351e:	4781                	li	a5,0
    3520:	bf15                	j	3454 <__truncdfsf2+0x4c>
    3522:	c8278793          	addi	a5,a5,-894
    3526:	00f316b3          	sll	a3,t1,a5
    352a:	00d036b3          	snez	a3,a3
    352e:	00f617b3          	sll	a5,a2,a5
    3532:	8fd5                	or	a5,a5,a3
    3534:	00e35733          	srl	a4,t1,a4
    3538:	8f5d                	or	a4,a4,a5
    353a:	00777793          	andi	a5,a4,7
    353e:	4681                	li	a3,0
    3540:	ffa1                	bnez	a5,3498 <__truncdfsf2+0x90>
    3542:	830d                	srli	a4,a4,0x3
    3544:	157d                	addi	a0,a0,-1 # 7fffff <_data_lma+0x7fc687>
    3546:	8f69                	and	a4,a4,a0
    3548:	bddd                	j	343e <__truncdfsf2+0x36>
    354a:	0711                	addi	a4,a4,4
    354c:	4681                	li	a3,0
    354e:	830d                	srli	a4,a4,0x3
    3550:	87b6                	mv	a5,a3
    3552:	b709                	j	3454 <__truncdfsf2+0x4c>
    3554:	071a                	slli	a4,a4,0x6
    3556:	8325                	srli	a4,a4,0x9
    3558:	b5dd                	j	343e <__truncdfsf2+0x36>
    355a:	071a                	slli	a4,a4,0x6
    355c:	8325                	srli	a4,a4,0x9
    355e:	0ff6f793          	zext.b	a5,a3
    3562:	bdf1                	j	343e <__truncdfsf2+0x36>

00003564 <__clzsi2>:
    3564:	67c1                	lui	a5,0x10
    3566:	02f57563          	bgeu	a0,a5,3590 <__clzsi2+0x2c>
    356a:	10053793          	sltiu	a5,a0,256
    356e:	0017c793          	xori	a5,a5,1
    3572:	078e                	slli	a5,a5,0x3
    3574:	02000713          	li	a4,32
    3578:	8f1d                	sub	a4,a4,a5
    357a:	00f55533          	srl	a0,a0,a5
    357e:	00000797          	auipc	a5,0x0
    3582:	2fa78793          	addi	a5,a5,762 # 3878 <__clz_tab>
    3586:	97aa                	add	a5,a5,a0
    3588:	2388                	lbu	a0,0(a5)
    358a:	40a70533          	sub	a0,a4,a0
    358e:	8082                	ret
    3590:	010007b7          	lui	a5,0x1000
    3594:	00f57f63          	bgeu	a0,a5,35b2 <__clzsi2+0x4e>
    3598:	47c1                	li	a5,16
    359a:	00f55533          	srl	a0,a0,a5
    359e:	00000797          	auipc	a5,0x0
    35a2:	2da78793          	addi	a5,a5,730 # 3878 <__clz_tab>
    35a6:	97aa                	add	a5,a5,a0
    35a8:	2388                	lbu	a0,0(a5)
    35aa:	4741                	li	a4,16
    35ac:	40a70533          	sub	a0,a4,a0
    35b0:	8082                	ret
    35b2:	47e1                	li	a5,24
    35b4:	00f55533          	srl	a0,a0,a5
    35b8:	00000797          	auipc	a5,0x0
    35bc:	2c078793          	addi	a5,a5,704 # 3878 <__clz_tab>
    35c0:	97aa                	add	a5,a5,a0
    35c2:	2388                	lbu	a0,0(a5)
    35c4:	4721                	li	a4,8
    35c6:	40a70533          	sub	a0,a4,a0
    35ca:	8082                	ret

000035cc <rand>:
    35cc:	1151                	addi	sp,sp,-12
    35ce:	c222                	sw	s0,4(sp)
    35d0:	1fffd417          	auipc	s0,0x1fffd
    35d4:	aa842403          	lw	s0,-1368(s0) # 20000078 <_impure_ptr>
    35d8:	5c1c                	lw	a5,56(s0)
    35da:	c406                	sw	ra,8(sp)
    35dc:	eb8d                	bnez	a5,360e <rand+0x42>
    35de:	4561                	li	a0,24
    35e0:	288d                	jal	3652 <malloc>
    35e2:	abcd37b7          	lui	a5,0xabcd3
    35e6:	dc08                	sw	a0,56(s0)
    35e8:	30e78793          	addi	a5,a5,782 # abcd330e <_eusrstack+0x8bcd230e>
    35ec:	c11c                	sw	a5,0(a0)
    35ee:	e66d17b7          	lui	a5,0xe66d1
    35f2:	23478793          	addi	a5,a5,564 # e66d1234 <_eusrstack+0xc66d0234>
    35f6:	c15c                	sw	a5,4(a0)
    35f8:	0005e7b7          	lui	a5,0x5e
    35fc:	eec78793          	addi	a5,a5,-276 # 5deec <_data_lma+0x5a574>
    3600:	c51c                	sw	a5,8(a0)
    3602:	47ad                	li	a5,11
    3604:	a55e                	sh	a5,12(a0)
    3606:	4705                	li	a4,1
    3608:	4781                	li	a5,0
    360a:	c918                	sw	a4,16(a0)
    360c:	c95c                	sw	a5,20(a0)
    360e:	5c10                	lw	a2,56(s0)
    3610:	4c9586b7          	lui	a3,0x4c958
    3614:	5851f5b7          	lui	a1,0x5851f
    3618:	4a18                	lw	a4,16(a2)
    361a:	4a5c                	lw	a5,20(a2)
    361c:	f2d68693          	addi	a3,a3,-211 # 4c957f2d <_eusrstack+0x2c956f2d>
    3620:	42d58593          	addi	a1,a1,1069 # 5851f42d <_eusrstack+0x3851e42d>
    3624:	02b705b3          	mul	a1,a4,a1
    3628:	40a2                	lw	ra,8(sp)
    362a:	4412                	lw	s0,4(sp)
    362c:	02d787b3          	mul	a5,a5,a3
    3630:	02d70533          	mul	a0,a4,a3
    3634:	97ae                	add	a5,a5,a1
    3636:	02d73733          	mulhu	a4,a4,a3
    363a:	97ba                	add	a5,a5,a4
    363c:	00150713          	addi	a4,a0,1
    3640:	00a73533          	sltu	a0,a4,a0
    3644:	953e                	add	a0,a0,a5
    3646:	ca48                	sw	a0,20(a2)
    3648:	ca18                	sw	a4,16(a2)
    364a:	0506                	slli	a0,a0,0x1
    364c:	8105                	srli	a0,a0,0x1
    364e:	0131                	addi	sp,sp,12
    3650:	8082                	ret

00003652 <malloc>:
    3652:	85aa                	mv	a1,a0
    3654:	1fffd517          	auipc	a0,0x1fffd
    3658:	a2452503          	lw	a0,-1500(a0) # 20000078 <_impure_ptr>
    365c:	a889                	j	36ae <_malloc_r>

0000365e <sbrk_aligned>:
    365e:	1141                	addi	sp,sp,-16
    3660:	c226                	sw	s1,4(sp)
    3662:	1fffd497          	auipc	s1,0x1fffd
    3666:	a1e48493          	addi	s1,s1,-1506 # 20000080 <__malloc_sbrk_start>
    366a:	4098                	lw	a4,0(s1)
    366c:	c422                	sw	s0,8(sp)
    366e:	c606                	sw	ra,12(sp)
    3670:	c02a                	sw	a0,0(sp)
    3672:	842e                	mv	s0,a1
    3674:	e701                	bnez	a4,367c <sbrk_aligned+0x1e>
    3676:	4581                	li	a1,0
    3678:	2289                	jal	37ba <_sbrk_r>
    367a:	c088                	sw	a0,0(s1)
    367c:	4502                	lw	a0,0(sp)
    367e:	85a2                	mv	a1,s0
    3680:	54fd                	li	s1,-1
    3682:	2a25                	jal	37ba <_sbrk_r>
    3684:	00951963          	bne	a0,s1,3696 <sbrk_aligned+0x38>
    3688:	547d                	li	s0,-1
    368a:	40b2                	lw	ra,12(sp)
    368c:	8522                	mv	a0,s0
    368e:	4422                	lw	s0,8(sp)
    3690:	4492                	lw	s1,4(sp)
    3692:	0141                	addi	sp,sp,16
    3694:	8082                	ret
    3696:	00350413          	addi	s0,a0,3
    369a:	9871                	andi	s0,s0,-4
    369c:	fe8507e3          	beq	a0,s0,368a <sbrk_aligned+0x2c>
    36a0:	40a405b3          	sub	a1,s0,a0
    36a4:	4502                	lw	a0,0(sp)
    36a6:	2a11                	jal	37ba <_sbrk_r>
    36a8:	fe9511e3          	bne	a0,s1,368a <sbrk_aligned+0x2c>
    36ac:	bff1                	j	3688 <sbrk_aligned+0x2a>

000036ae <_malloc_r>:
    36ae:	00358793          	addi	a5,a1,3
    36b2:	1131                	addi	sp,sp,-20
    36b4:	9bf1                	andi	a5,a5,-4
    36b6:	c426                	sw	s1,8(sp)
    36b8:	c806                	sw	ra,16(sp)
    36ba:	c622                	sw	s0,12(sp)
    36bc:	c02a                	sw	a0,0(sp)
    36be:	00878493          	addi	s1,a5,8
    36c2:	4731                	li	a4,12
    36c4:	06e4f863          	bgeu	s1,a4,3734 <_malloc_r+0x86>
    36c8:	44b1                	li	s1,12
    36ca:	06b4e763          	bltu	s1,a1,3738 <_malloc_r+0x8a>
    36ce:	4502                	lw	a0,0(sp)
    36d0:	2a09                	jal	37e2 <__malloc_lock>
    36d2:	80c18313          	addi	t1,gp,-2036 # 20000084 <__malloc_free_list>
    36d6:	00032703          	lw	a4,0(t1) # 800000 <_data_lma+0x7fc688>
    36da:	843a                	mv	s0,a4
    36dc:	e43d                	bnez	s0,374a <_malloc_r+0x9c>
    36de:	4502                	lw	a0,0(sp)
    36e0:	85a6                	mv	a1,s1
    36e2:	3fb5                	jal	365e <sbrk_aligned>
    36e4:	577d                	li	a4,-1
    36e6:	842a                	mv	s0,a0
    36e8:	80c18313          	addi	t1,gp,-2036 # 20000084 <__malloc_free_list>
    36ec:	0ce51563          	bne	a0,a4,37b6 <_malloc_r+0x108>
    36f0:	00032403          	lw	s0,0(t1)
    36f4:	8722                	mv	a4,s0
    36f6:	e75d                	bnez	a4,37a4 <_malloc_r+0xf6>
    36f8:	4018                	lw	a4,0(s0)
    36fa:	4502                	lw	a0,0(sp)
    36fc:	4581                	li	a1,0
    36fe:	9722                	add	a4,a4,s0
    3700:	c23a                	sw	a4,4(sp)
    3702:	2865                	jal	37ba <_sbrk_r>
    3704:	4712                	lw	a4,4(sp)
    3706:	0aa71263          	bne	a4,a0,37aa <_malloc_r+0xfc>
    370a:	401c                	lw	a5,0(s0)
    370c:	00348593          	addi	a1,s1,3
    3710:	8d9d                	sub	a1,a1,a5
    3712:	99f1                	andi	a1,a1,-4
    3714:	00858493          	addi	s1,a1,8
    3718:	47b1                	li	a5,12
    371a:	00f4f363          	bgeu	s1,a5,3720 <_malloc_r+0x72>
    371e:	44b1                	li	s1,12
    3720:	4502                	lw	a0,0(sp)
    3722:	85a6                	mv	a1,s1
    3724:	3f2d                	jal	365e <sbrk_aligned>
    3726:	57fd                	li	a5,-1
    3728:	08f50163          	beq	a0,a5,37aa <_malloc_r+0xfc>
    372c:	401c                	lw	a5,0(s0)
    372e:	97a6                	add	a5,a5,s1
    3730:	c01c                	sw	a5,0(s0)
    3732:	a82d                	j	376c <_malloc_r+0xbe>
    3734:	f804dbe3          	bgez	s1,36ca <_malloc_r+0x1c>
    3738:	4702                	lw	a4,0(sp)
    373a:	47b1                	li	a5,12
    373c:	c31c                	sw	a5,0(a4)
    373e:	4501                	li	a0,0
    3740:	40c2                	lw	ra,16(sp)
    3742:	4432                	lw	s0,12(sp)
    3744:	44a2                	lw	s1,8(sp)
    3746:	0151                	addi	sp,sp,20
    3748:	8082                	ret
    374a:	4010                	lw	a2,0(s0)
    374c:	8e05                	sub	a2,a2,s1
    374e:	04064863          	bltz	a2,379e <_malloc_r+0xf0>
    3752:	46ad                	li	a3,11
    3754:	02c6fd63          	bgeu	a3,a2,378e <_malloc_r+0xe0>
    3758:	c004                	sw	s1,0(s0)
    375a:	009406b3          	add	a3,s0,s1
    375e:	02871663          	bne	a4,s0,378a <_malloc_r+0xdc>
    3762:	00d32023          	sw	a3,0(t1)
    3766:	405c                	lw	a5,4(s0)
    3768:	c290                	sw	a2,0(a3)
    376a:	c2dc                	sw	a5,4(a3)
    376c:	4502                	lw	a0,0(sp)
    376e:	28ad                	jal	37e8 <__malloc_unlock>
    3770:	00b40513          	addi	a0,s0,11
    3774:	00440793          	addi	a5,s0,4
    3778:	9961                	andi	a0,a0,-8
    377a:	40f50733          	sub	a4,a0,a5
    377e:	fcf501e3          	beq	a0,a5,3740 <_malloc_r+0x92>
    3782:	943a                	add	s0,s0,a4
    3784:	8f89                	sub	a5,a5,a0
    3786:	c01c                	sw	a5,0(s0)
    3788:	bf65                	j	3740 <_malloc_r+0x92>
    378a:	c354                	sw	a3,4(a4)
    378c:	bfe9                	j	3766 <_malloc_r+0xb8>
    378e:	405c                	lw	a5,4(s0)
    3790:	00871563          	bne	a4,s0,379a <_malloc_r+0xec>
    3794:	00f32023          	sw	a5,0(t1)
    3798:	bfd1                	j	376c <_malloc_r+0xbe>
    379a:	c35c                	sw	a5,4(a4)
    379c:	bfc1                	j	376c <_malloc_r+0xbe>
    379e:	8722                	mv	a4,s0
    37a0:	4040                	lw	s0,4(s0)
    37a2:	bf2d                	j	36dc <_malloc_r+0x2e>
    37a4:	843a                	mv	s0,a4
    37a6:	4358                	lw	a4,4(a4)
    37a8:	b7b9                	j	36f6 <_malloc_r+0x48>
    37aa:	4702                	lw	a4,0(sp)
    37ac:	47b1                	li	a5,12
    37ae:	c31c                	sw	a5,0(a4)
    37b0:	853a                	mv	a0,a4
    37b2:	281d                	jal	37e8 <__malloc_unlock>
    37b4:	b769                	j	373e <_malloc_r+0x90>
    37b6:	c104                	sw	s1,0(a0)
    37b8:	bf55                	j	376c <_malloc_r+0xbe>

000037ba <_sbrk_r>:
    37ba:	1151                	addi	sp,sp,-12
    37bc:	c222                	sw	s0,4(sp)
    37be:	842a                	mv	s0,a0
    37c0:	852e                	mv	a0,a1
    37c2:	8001a823          	sw	zero,-2032(gp) # 20000088 <errno>
    37c6:	c406                	sw	ra,8(sp)
    37c8:	b76fd0ef          	jal	ra,b3e <_sbrk>
    37cc:	57fd                	li	a5,-1
    37ce:	00f51663          	bne	a0,a5,37da <_sbrk_r+0x20>
    37d2:	8101a783          	lw	a5,-2032(gp) # 20000088 <errno>
    37d6:	c391                	beqz	a5,37da <_sbrk_r+0x20>
    37d8:	c01c                	sw	a5,0(s0)
    37da:	40a2                	lw	ra,8(sp)
    37dc:	4412                	lw	s0,4(sp)
    37de:	0131                	addi	sp,sp,12
    37e0:	8082                	ret

000037e2 <__malloc_lock>:
    37e2:	81418513          	addi	a0,gp,-2028 # 2000008c <__lock___malloc_recursive_mutex>
    37e6:	a021                	j	37ee <__retarget_lock_acquire_recursive>

000037e8 <__malloc_unlock>:
    37e8:	81418513          	addi	a0,gp,-2028 # 2000008c <__lock___malloc_recursive_mutex>
    37ec:	a011                	j	37f0 <__retarget_lock_release_recursive>

000037ee <__retarget_lock_acquire_recursive>:
    37ee:	8082                	ret

000037f0 <__retarget_lock_release_recursive>:
    37f0:	8082                	ret
    37f2:	0000                	unimp
    37f4:	0000                	unimp
    37f6:	3f00                	lbu	s0,25(a4)
    37f8:	3f333333          	.4byte	0x3f333333
    37fc:	0000                	unimp
    37fe:	4348                	lw	a0,4(a4)
    3800:	0000                	unimp
    3802:	4248                	lw	a0,4(a2)
	...
    380c:	0000                	unimp
    380e:	3ff0                	lbu	a2,31(a5)
    3810:	999a                	add	s3,s3,t1
    3812:	9999                	andi	a1,a1,-26
    3814:	9999                	andi	a1,a1,-26
    3816:	3fa9                	jal	3770 <_malloc_r+0xc2>
    3818:	6666                	.2byte	0x6666
    381a:	6666                	.2byte	0x6666
    381c:	6666                	.2byte	0x6666
    381e:	3fee                	lhu	a1,62(a5)
    3820:	0000                	unimp
    3822:	0000                	unimp
    3824:	4000                	lw	s0,0(s0)
    3826:	6666408f          	.4byte	0x6666408f
    382a:	6666                	.2byte	0x6666
    382c:	6666                	.2byte	0x6666
    382e:	3fd6                	lhu	a3,60(a5)
    3830:	0000                	unimp
    3832:	0000                	unimp
    3834:	0000                	unimp
    3836:	4024                	lw	s1,64(s0)
    3838:	dc72                	sw	t3,56(sp)
    383a:	ffff                	.2byte	0xffff
    383c:	daf8                	sw	a4,116(a3)
    383e:	ffff                	.2byte	0xffff
    3840:	dad8                	sw	a4,52(a3)
    3842:	ffff                	.2byte	0xffff
    3844:	dbde                	sw	s7,244(sp)
    3846:	ffff                	.2byte	0xffff
    3848:	dad8                	sw	a4,52(a3)
    384a:	ffff                	.2byte	0xffff
    384c:	db02                	sw	zero,180(sp)
    384e:	ffff                	.2byte	0xffff
    3850:	dad8                	sw	a4,52(a3)
    3852:	ffff                	.2byte	0xffff
    3854:	dbde                	sw	s7,244(sp)
    3856:	ffff                	.2byte	0xffff
    3858:	daf8                	sw	a4,116(a3)
    385a:	ffff                	.2byte	0xffff
    385c:	daf8                	sw	a4,116(a3)
    385e:	ffff                	.2byte	0xffff
    3860:	db02                	sw	zero,180(sp)
    3862:	ffff                	.2byte	0xffff
    3864:	dbde                	sw	s7,244(sp)
    3866:	ffff                	.2byte	0xffff
    3868:	dc3c                	sw	a5,120(s0)
    386a:	ffff                	.2byte	0xffff
    386c:	dc3c                	sw	a5,120(s0)
    386e:	ffff                	.2byte	0xffff
    3870:	dc3c                	sw	a5,120(s0)
    3872:	ffff                	.2byte	0xffff
    3874:	db02                	sw	zero,180(sp)
    3876:	ffff                	.2byte	0xffff

00003878 <__clz_tab>:
    3878:	0100 0202 0303 0303 0404 0404 0404 0404     ................
    3888:	0505 0505 0505 0505 0505 0505 0505 0505     ................
    3898:	0606 0606 0606 0606 0606 0606 0606 0606     ................
    38a8:	0606 0606 0606 0606 0606 0606 0606 0606     ................
    38b8:	0707 0707 0707 0707 0707 0707 0707 0707     ................
    38c8:	0707 0707 0707 0707 0707 0707 0707 0707     ................
    38d8:	0707 0707 0707 0707 0707 0707 0707 0707     ................
    38e8:	0707 0707 0707 0707 0707 0707 0707 0707     ................
    38f8:	0808 0808 0808 0808 0808 0808 0808 0808     ................
    3908:	0808 0808 0808 0808 0808 0808 0808 0808     ................
    3918:	0808 0808 0808 0808 0808 0808 0808 0808     ................
    3928:	0808 0808 0808 0808 0808 0808 0808 0808     ................
    3938:	0808 0808 0808 0808 0808 0808 0808 0808     ................
    3948:	0808 0808 0808 0808 0808 0808 0808 0808     ................
    3958:	0808 0808 0808 0808 0808 0808 0808 0808     ................
    3968:	0808 0808 0808 0808 0808 0808 0808 0808     ................
